
graphic.elf:     file format elf32-avr

Sections:
Idx Name          Size      VMA       LMA       File off  Algn
  0 .data         0000168e  00800200  0000237a  0000240e  2**0
                  CONTENTS, ALLOC, LOAD, DATA
  1 .text         0000237a  00000000  00000000  00000094  2**1
                  CONTENTS, ALLOC, LOAD, READONLY, CODE
  2 .bss          0000012e  0080188e  0080188e  00003a9c  2**0
                  ALLOC
  3 .comment      00000030  00000000  00000000  00003a9c  2**0
                  CONTENTS, READONLY
  4 .note.gnu.avr.deviceinfo 00000040  00000000  00000000  00003acc  2**2
                  CONTENTS, READONLY
  5 .debug_aranges 00000270  00000000  00000000  00003b0c  2**0
                  CONTENTS, READONLY, DEBUGGING
  6 .debug_info   00004596  00000000  00000000  00003d7c  2**0
                  CONTENTS, READONLY, DEBUGGING
  7 .debug_abbrev 000016f0  00000000  00000000  00008312  2**0
                  CONTENTS, READONLY, DEBUGGING
  8 .debug_line   00001c9e  00000000  00000000  00009a02  2**0
                  CONTENTS, READONLY, DEBUGGING
  9 .debug_frame  000008f4  00000000  00000000  0000b6a0  2**2
                  CONTENTS, READONLY, DEBUGGING
 10 .debug_str    00000f6f  00000000  00000000  0000bf94  2**0
                  CONTENTS, READONLY, DEBUGGING
 11 .debug_loc    00002d05  00000000  00000000  0000cf03  2**0
                  CONTENTS, READONLY, DEBUGGING
 12 .debug_ranges 00000260  00000000  00000000  0000fc08  2**0
                  CONTENTS, READONLY, DEBUGGING

Disassembly of section .text:

00000000 <__vectors>:
       0:	71 c0       	rjmp	.+226    	; 0xe4 <__ctors_end>
       2:	00 00       	nop
       4:	90 c0       	rjmp	.+288    	; 0x126 <__bad_interrupt>
       6:	00 00       	nop
       8:	8e c0       	rjmp	.+284    	; 0x126 <__bad_interrupt>
       a:	00 00       	nop
       c:	8c c0       	rjmp	.+280    	; 0x126 <__bad_interrupt>
       e:	00 00       	nop
      10:	8a c0       	rjmp	.+276    	; 0x126 <__bad_interrupt>
      12:	00 00       	nop
      14:	88 c0       	rjmp	.+272    	; 0x126 <__bad_interrupt>
      16:	00 00       	nop
      18:	86 c0       	rjmp	.+268    	; 0x126 <__bad_interrupt>
      1a:	00 00       	nop
      1c:	84 c0       	rjmp	.+264    	; 0x126 <__bad_interrupt>
      1e:	00 00       	nop
      20:	82 c0       	rjmp	.+260    	; 0x126 <__bad_interrupt>
      22:	00 00       	nop
      24:	80 c0       	rjmp	.+256    	; 0x126 <__bad_interrupt>
      26:	00 00       	nop
      28:	7e c0       	rjmp	.+252    	; 0x126 <__bad_interrupt>
      2a:	00 00       	nop
      2c:	7c c0       	rjmp	.+248    	; 0x126 <__bad_interrupt>
      2e:	00 00       	nop
      30:	7a c0       	rjmp	.+244    	; 0x126 <__bad_interrupt>
      32:	00 00       	nop
      34:	78 c0       	rjmp	.+240    	; 0x126 <__bad_interrupt>
      36:	00 00       	nop
      38:	76 c0       	rjmp	.+236    	; 0x126 <__bad_interrupt>
      3a:	00 00       	nop
      3c:	74 c0       	rjmp	.+232    	; 0x126 <__bad_interrupt>
      3e:	00 00       	nop
      40:	72 c0       	rjmp	.+228    	; 0x126 <__bad_interrupt>
      42:	00 00       	nop
      44:	13 c6       	rjmp	.+3110   	; 0xc6c <__vector_17>
      46:	00 00       	nop
      48:	6e c0       	rjmp	.+220    	; 0x126 <__bad_interrupt>
      4a:	00 00       	nop
      4c:	6c c0       	rjmp	.+216    	; 0x126 <__bad_interrupt>
      4e:	00 00       	nop
      50:	6a c0       	rjmp	.+212    	; 0x126 <__bad_interrupt>
      52:	00 00       	nop
      54:	68 c0       	rjmp	.+208    	; 0x126 <__bad_interrupt>
      56:	00 00       	nop
      58:	66 c0       	rjmp	.+204    	; 0x126 <__bad_interrupt>
      5a:	00 00       	nop
      5c:	64 c0       	rjmp	.+200    	; 0x126 <__bad_interrupt>
      5e:	00 00       	nop
      60:	62 c0       	rjmp	.+196    	; 0x126 <__bad_interrupt>
      62:	00 00       	nop
      64:	60 c0       	rjmp	.+192    	; 0x126 <__bad_interrupt>
      66:	00 00       	nop
      68:	5e c0       	rjmp	.+188    	; 0x126 <__bad_interrupt>
      6a:	00 00       	nop
      6c:	5c c0       	rjmp	.+184    	; 0x126 <__bad_interrupt>
      6e:	00 00       	nop
      70:	5a c0       	rjmp	.+180    	; 0x126 <__bad_interrupt>
      72:	00 00       	nop
      74:	58 c0       	rjmp	.+176    	; 0x126 <__bad_interrupt>
      76:	00 00       	nop
      78:	56 c0       	rjmp	.+172    	; 0x126 <__bad_interrupt>
      7a:	00 00       	nop
      7c:	54 c0       	rjmp	.+168    	; 0x126 <__bad_interrupt>
      7e:	00 00       	nop
      80:	52 c0       	rjmp	.+164    	; 0x126 <__bad_interrupt>
      82:	00 00       	nop
      84:	50 c0       	rjmp	.+160    	; 0x126 <__bad_interrupt>
      86:	00 00       	nop
      88:	4e c0       	rjmp	.+156    	; 0x126 <__bad_interrupt>
      8a:	00 00       	nop
      8c:	4c c0       	rjmp	.+152    	; 0x126 <__bad_interrupt>
      8e:	00 00       	nop
      90:	4a c0       	rjmp	.+148    	; 0x126 <__bad_interrupt>
      92:	00 00       	nop
      94:	48 c0       	rjmp	.+144    	; 0x126 <__bad_interrupt>
      96:	00 00       	nop
      98:	46 c0       	rjmp	.+140    	; 0x126 <__bad_interrupt>
      9a:	00 00       	nop
      9c:	44 c0       	rjmp	.+136    	; 0x126 <__bad_interrupt>
      9e:	00 00       	nop
      a0:	42 c0       	rjmp	.+132    	; 0x126 <__bad_interrupt>
      a2:	00 00       	nop
      a4:	40 c0       	rjmp	.+128    	; 0x126 <__bad_interrupt>
      a6:	00 00       	nop
      a8:	3e c0       	rjmp	.+124    	; 0x126 <__bad_interrupt>
      aa:	00 00       	nop
      ac:	3c c0       	rjmp	.+120    	; 0x126 <__bad_interrupt>
      ae:	00 00       	nop
      b0:	3a c0       	rjmp	.+116    	; 0x126 <__bad_interrupt>
      b2:	00 00       	nop
      b4:	38 c0       	rjmp	.+112    	; 0x126 <__bad_interrupt>
      b6:	00 00       	nop
      b8:	36 c0       	rjmp	.+108    	; 0x126 <__bad_interrupt>
      ba:	00 00       	nop
      bc:	34 c0       	rjmp	.+104    	; 0x126 <__bad_interrupt>
      be:	00 00       	nop
      c0:	32 c0       	rjmp	.+100    	; 0x126 <__bad_interrupt>
      c2:	00 00       	nop
      c4:	30 c0       	rjmp	.+96     	; 0x126 <__bad_interrupt>
      c6:	00 00       	nop
      c8:	2e c0       	rjmp	.+92     	; 0x126 <__bad_interrupt>
      ca:	00 00       	nop
      cc:	2c c0       	rjmp	.+88     	; 0x126 <__bad_interrupt>
      ce:	00 00       	nop
      d0:	2a c0       	rjmp	.+84     	; 0x126 <__bad_interrupt>
      d2:	00 00       	nop
      d4:	28 c0       	rjmp	.+80     	; 0x126 <__bad_interrupt>
      d6:	00 00       	nop
      d8:	26 c0       	rjmp	.+76     	; 0x126 <__bad_interrupt>
      da:	00 00       	nop
      dc:	24 c0       	rjmp	.+72     	; 0x126 <__bad_interrupt>
      de:	00 00       	nop
      e0:	22 c0       	rjmp	.+68     	; 0x126 <__bad_interrupt>
	...

000000e4 <__ctors_end>:
      e4:	11 24       	eor	r1, r1
      e6:	1f be       	out	0x3f, r1	; 63
      e8:	cf ef       	ldi	r28, 0xFF	; 255
      ea:	d1 e2       	ldi	r29, 0x21	; 33
      ec:	de bf       	out	0x3e, r29	; 62
      ee:	cd bf       	out	0x3d, r28	; 61
      f0:	00 e0       	ldi	r16, 0x00	; 0
      f2:	0c bf       	out	0x3c, r16	; 60

000000f4 <__do_copy_data>:
      f4:	18 e1       	ldi	r17, 0x18	; 24
      f6:	a0 e0       	ldi	r26, 0x00	; 0
      f8:	b2 e0       	ldi	r27, 0x02	; 2
      fa:	ea e7       	ldi	r30, 0x7A	; 122
      fc:	f3 e2       	ldi	r31, 0x23	; 35
      fe:	00 e0       	ldi	r16, 0x00	; 0
     100:	0b bf       	out	0x3b, r16	; 59
     102:	02 c0       	rjmp	.+4      	; 0x108 <__do_copy_data+0x14>
     104:	07 90       	elpm	r0, Z+
     106:	0d 92       	st	X+, r0
     108:	ae 38       	cpi	r26, 0x8E	; 142
     10a:	b1 07       	cpc	r27, r17
     10c:	d9 f7       	brne	.-10     	; 0x104 <__do_copy_data+0x10>

0000010e <__do_clear_bss>:
     10e:	29 e1       	ldi	r18, 0x19	; 25
     110:	ae e8       	ldi	r26, 0x8E	; 142
     112:	b8 e1       	ldi	r27, 0x18	; 24
     114:	01 c0       	rjmp	.+2      	; 0x118 <.do_clear_bss_start>

00000116 <.do_clear_bss_loop>:
     116:	1d 92       	st	X+, r1

00000118 <.do_clear_bss_start>:
     118:	ac 3b       	cpi	r26, 0xBC	; 188
     11a:	b2 07       	cpc	r27, r18
     11c:	e1 f7       	brne	.-8      	; 0x116 <.do_clear_bss_loop>
     11e:	0e 94 2f 0e 	call	0x1c5e	; 0x1c5e <main>
     122:	0c 94 bb 11 	jmp	0x2376	; 0x2376 <_exit>

00000126 <__bad_interrupt>:
     126:	6c cf       	rjmp	.-296    	; 0x0 <__vectors>

00000128 <SendStringCRLF>:
     128:	0f 93       	push	r16
     12a:	1f 93       	push	r17
     12c:	cf 93       	push	r28
     12e:	df 93       	push	r29
     130:	8c 01       	movw	r16, r24
     132:	fc 01       	movw	r30, r24
     134:	01 90       	ld	r0, Z+
     136:	00 20       	and	r0, r0
     138:	e9 f7       	brne	.-6      	; 0x134 <SendStringCRLF+0xc>
     13a:	cf 01       	movw	r24, r30
     13c:	80 1b       	sub	r24, r16
     13e:	91 0b       	sbc	r25, r17
     140:	04 96       	adiw	r24, 0x04	; 4
     142:	0e 94 32 10 	call	0x2064	; 0x2064 <malloc>
     146:	ec 01       	movw	r28, r24
     148:	b8 01       	movw	r22, r16
     14a:	0e 94 7f 11 	call	0x22fe	; 0x22fe <strcpy>
     14e:	fe 01       	movw	r30, r28
     150:	01 90       	ld	r0, Z+
     152:	00 20       	and	r0, r0
     154:	e9 f7       	brne	.-6      	; 0x150 <SendStringCRLF+0x28>
     156:	31 97       	sbiw	r30, 0x01	; 1
     158:	8d e0       	ldi	r24, 0x0D	; 13
     15a:	9a e0       	ldi	r25, 0x0A	; 10
     15c:	91 83       	std	Z+1, r25	; 0x01
     15e:	80 83       	st	Z, r24
     160:	12 82       	std	Z+2, r1	; 0x02
     162:	ce 01       	movw	r24, r28
     164:	0e 94 cc 0f 	call	0x1f98	; 0x1f98 <SendString>
     168:	ce 01       	movw	r24, r28
     16a:	0e 94 ca 10 	call	0x2194	; 0x2194 <free>
     16e:	df 91       	pop	r29
     170:	cf 91       	pop	r28
     172:	1f 91       	pop	r17
     174:	0f 91       	pop	r16
     176:	08 95       	ret

00000178 <InitBluetoothModule>:
     178:	10 92 bd 18 	sts	0x18BD, r1	; 0x8018bd <numberOfRegisteredAddresses+0x1>
     17c:	10 92 bc 18 	sts	0x18BC, r1	; 0x8018bc <numberOfRegisteredAddresses>
     180:	2f ef       	ldi	r18, 0xFF	; 255
     182:	83 ed       	ldi	r24, 0xD3	; 211
     184:	90 e3       	ldi	r25, 0x30	; 48
     186:	21 50       	subi	r18, 0x01	; 1
     188:	80 40       	sbci	r24, 0x00	; 0
     18a:	90 40       	sbci	r25, 0x00	; 0
     18c:	e1 f7       	brne	.-8      	; 0x186 <InitBluetoothModule+0xe>
     18e:	00 c0       	rjmp	.+0      	; 0x190 <InitBluetoothModule+0x18>
     190:	00 00       	nop
     192:	82 e1       	ldi	r24, 0x12	; 18
     194:	92 e0       	ldi	r25, 0x02	; 2
     196:	c8 df       	rcall	.-112    	; 0x128 <SendStringCRLF>
     198:	2f ef       	ldi	r18, 0xFF	; 255
     19a:	83 ed       	ldi	r24, 0xD3	; 211
     19c:	90 e3       	ldi	r25, 0x30	; 48
     19e:	21 50       	subi	r18, 0x01	; 1
     1a0:	80 40       	sbci	r24, 0x00	; 0
     1a2:	90 40       	sbci	r25, 0x00	; 0
     1a4:	e1 f7       	brne	.-8      	; 0x19e <InitBluetoothModule+0x26>
     1a6:	00 c0       	rjmp	.+0      	; 0x1a8 <InitBluetoothModule+0x30>
     1a8:	00 00       	nop
     1aa:	8a e1       	ldi	r24, 0x1A	; 26
     1ac:	92 e0       	ldi	r25, 0x02	; 2
     1ae:	bc df       	rcall	.-136    	; 0x128 <SendStringCRLF>
     1b0:	2f ef       	ldi	r18, 0xFF	; 255
     1b2:	83 ed       	ldi	r24, 0xD3	; 211
     1b4:	90 e3       	ldi	r25, 0x30	; 48
     1b6:	21 50       	subi	r18, 0x01	; 1
     1b8:	80 40       	sbci	r24, 0x00	; 0
     1ba:	90 40       	sbci	r25, 0x00	; 0
     1bc:	e1 f7       	brne	.-8      	; 0x1b6 <InitBluetoothModule+0x3e>
     1be:	00 c0       	rjmp	.+0      	; 0x1c0 <InitBluetoothModule+0x48>
     1c0:	00 00       	nop
     1c2:	83 e2       	ldi	r24, 0x23	; 35
     1c4:	92 e0       	ldi	r25, 0x02	; 2
     1c6:	b0 df       	rcall	.-160    	; 0x128 <SendStringCRLF>
     1c8:	2f ef       	ldi	r18, 0xFF	; 255
     1ca:	83 ed       	ldi	r24, 0xD3	; 211
     1cc:	90 e3       	ldi	r25, 0x30	; 48
     1ce:	21 50       	subi	r18, 0x01	; 1
     1d0:	80 40       	sbci	r24, 0x00	; 0
     1d2:	90 40       	sbci	r25, 0x00	; 0
     1d4:	e1 f7       	brne	.-8      	; 0x1ce <InitBluetoothModule+0x56>
     1d6:	00 c0       	rjmp	.+0      	; 0x1d8 <InitBluetoothModule+0x60>
     1d8:	00 00       	nop
     1da:	8d e2       	ldi	r24, 0x2D	; 45
     1dc:	92 e0       	ldi	r25, 0x02	; 2
     1de:	a4 df       	rcall	.-184    	; 0x128 <SendStringCRLF>
     1e0:	2f ef       	ldi	r18, 0xFF	; 255
     1e2:	8d e3       	ldi	r24, 0x3D	; 61
     1e4:	99 e4       	ldi	r25, 0x49	; 73
     1e6:	21 50       	subi	r18, 0x01	; 1
     1e8:	80 40       	sbci	r24, 0x00	; 0
     1ea:	90 40       	sbci	r25, 0x00	; 0
     1ec:	e1 f7       	brne	.-8      	; 0x1e6 <InitBluetoothModule+0x6e>
     1ee:	00 c0       	rjmp	.+0      	; 0x1f0 <InitBluetoothModule+0x78>
     1f0:	00 00       	nop
     1f2:	85 e3       	ldi	r24, 0x35	; 53
     1f4:	92 e0       	ldi	r25, 0x02	; 2
     1f6:	98 df       	rcall	.-208    	; 0x128 <SendStringCRLF>
     1f8:	2f ef       	ldi	r18, 0xFF	; 255
     1fa:	8d e3       	ldi	r24, 0x3D	; 61
     1fc:	99 e4       	ldi	r25, 0x49	; 73
     1fe:	21 50       	subi	r18, 0x01	; 1
     200:	80 40       	sbci	r24, 0x00	; 0
     202:	90 40       	sbci	r25, 0x00	; 0
     204:	e1 f7       	brne	.-8      	; 0x1fe <InitBluetoothModule+0x86>
     206:	00 c0       	rjmp	.+0      	; 0x208 <InitBluetoothModule+0x90>
     208:	00 00       	nop
     20a:	08 95       	ret

0000020c <nearbyAddressDelimeter>:
     20c:	2f 92       	push	r2
     20e:	3f 92       	push	r3
     210:	4f 92       	push	r4
     212:	5f 92       	push	r5
     214:	6f 92       	push	r6
     216:	7f 92       	push	r7
     218:	8f 92       	push	r8
     21a:	9f 92       	push	r9
     21c:	af 92       	push	r10
     21e:	bf 92       	push	r11
     220:	cf 92       	push	r12
     222:	df 92       	push	r13
     224:	ef 92       	push	r14
     226:	ff 92       	push	r15
     228:	0f 93       	push	r16
     22a:	1f 93       	push	r17
     22c:	cf 93       	push	r28
     22e:	df 93       	push	r29
     230:	cd b7       	in	r28, 0x3d	; 61
     232:	de b7       	in	r29, 0x3e	; 62
     234:	2c 97       	sbiw	r28, 0x0c	; 12
     236:	0f b6       	in	r0, 0x3f	; 63
     238:	f8 94       	cli
     23a:	de bf       	out	0x3e, r29	; 62
     23c:	0f be       	out	0x3f, r0	; 63
     23e:	cd bf       	out	0x3d, r28	; 61
     240:	8c 01       	movw	r16, r24
     242:	85 e0       	ldi	r24, 0x05	; 5
     244:	90 e0       	ldi	r25, 0x00	; 0
     246:	0e 94 32 10 	call	0x2064	; 0x2064 <malloc>
     24a:	7c 01       	movw	r14, r24
     24c:	83 e0       	ldi	r24, 0x03	; 3
     24e:	90 e0       	ldi	r25, 0x00	; 0
     250:	0e 94 32 10 	call	0x2064	; 0x2064 <malloc>
     254:	6c 01       	movw	r12, r24
     256:	83 e0       	ldi	r24, 0x03	; 3
     258:	90 e0       	ldi	r25, 0x00	; 0
     25a:	0e 94 32 10 	call	0x2064	; 0x2064 <malloc>
     25e:	1c 01       	movw	r2, r24
     260:	f8 01       	movw	r30, r16
     262:	33 97       	sbiw	r30, 0x03	; 3
     264:	98 01       	movw	r18, r16
     266:	27 5d       	subi	r18, 0xD7	; 215
     268:	3e 4f       	sbci	r19, 0xFE	; 254
     26a:	81 91       	ld	r24, Z+
     26c:	8b 32       	cpi	r24, 0x2B	; 43
     26e:	91 f4       	brne	.+36     	; 0x294 <nearbyAddressDelimeter+0x88>
     270:	80 81       	ld	r24, Z
     272:	89 34       	cpi	r24, 0x49	; 73
     274:	79 f4       	brne	.+30     	; 0x294 <nearbyAddressDelimeter+0x88>
     276:	81 81       	ldd	r24, Z+1	; 0x01
     278:	8e 34       	cpi	r24, 0x4E	; 78
     27a:	61 f4       	brne	.+24     	; 0x294 <nearbyAddressDelimeter+0x88>
     27c:	82 81       	ldd	r24, Z+2	; 0x02
     27e:	81 35       	cpi	r24, 0x51	; 81
     280:	49 f4       	brne	.+18     	; 0x294 <nearbyAddressDelimeter+0x88>
     282:	80 91 ac 18 	lds	r24, 0x18AC	; 0x8018ac <numberOfNearbyAddresses>
     286:	90 91 ad 18 	lds	r25, 0x18AD	; 0x8018ad <numberOfNearbyAddresses+0x1>
     28a:	01 96       	adiw	r24, 0x01	; 1
     28c:	90 93 ad 18 	sts	0x18AD, r25	; 0x8018ad <numberOfNearbyAddresses+0x1>
     290:	80 93 ac 18 	sts	0x18AC, r24	; 0x8018ac <numberOfNearbyAddresses>
     294:	e2 17       	cp	r30, r18
     296:	f3 07       	cpc	r31, r19
     298:	41 f7       	brne	.-48     	; 0x26a <nearbyAddressDelimeter+0x5e>
     29a:	ae 01       	movw	r20, r28
     29c:	4f 5f       	subi	r20, 0xFF	; 255
     29e:	5f 4f       	sbci	r21, 0xFF	; 255
     2a0:	6d e0       	ldi	r22, 0x0D	; 13
     2a2:	73 e0       	ldi	r23, 0x03	; 3
     2a4:	c8 01       	movw	r24, r16
     2a6:	0e 94 94 11 	call	0x2328	; 0x2328 <strtok_r>
     2aa:	80 91 ac 18 	lds	r24, 0x18AC	; 0x8018ac <numberOfNearbyAddresses>
     2ae:	90 91 ad 18 	lds	r25, 0x18AD	; 0x8018ad <numberOfNearbyAddresses+0x1>
     2b2:	18 16       	cp	r1, r24
     2b4:	19 06       	cpc	r1, r25
     2b6:	0c f0       	brlt	.+2      	; 0x2ba <nearbyAddressDelimeter+0xae>
     2b8:	9d c0       	rjmp	.+314    	; 0x3f4 <nearbyAddressDelimeter+0x1e8>
     2ba:	ce 01       	movw	r24, r28
     2bc:	03 96       	adiw	r24, 0x03	; 3
     2be:	9c 87       	std	Y+12, r25	; 0x0c
     2c0:	8b 87       	std	Y+11, r24	; 0x0b
     2c2:	a1 2c       	mov	r10, r1
     2c4:	b1 2c       	mov	r11, r1
     2c6:	0f 2e       	mov	r0, r31
     2c8:	fc e2       	ldi	r31, 0x2C	; 44
     2ca:	4f 2e       	mov	r4, r31
     2cc:	51 2c       	mov	r5, r1
     2ce:	f0 2d       	mov	r31, r0
     2d0:	15 c0       	rjmp	.+42     	; 0x2fc <nearbyAddressDelimeter+0xf0>
     2d2:	1a 14       	cp	r1, r10
     2d4:	1b 04       	cpc	r1, r11
     2d6:	94 f4       	brge	.+36     	; 0x2fc <nearbyAddressDelimeter+0xf0>
     2d8:	ae 01       	movw	r20, r28
     2da:	4f 5f       	subi	r20, 0xFF	; 255
     2dc:	5f 4f       	sbci	r21, 0xFF	; 255
     2de:	63 e4       	ldi	r22, 0x43	; 67
     2e0:	72 e0       	ldi	r23, 0x02	; 2
     2e2:	80 e0       	ldi	r24, 0x00	; 0
     2e4:	90 e0       	ldi	r25, 0x00	; 0
     2e6:	0e 94 94 11 	call	0x2328	; 0x2328 <strtok_r>
     2ea:	ae 01       	movw	r20, r28
     2ec:	4f 5f       	subi	r20, 0xFF	; 255
     2ee:	5f 4f       	sbci	r21, 0xFF	; 255
     2f0:	6d e0       	ldi	r22, 0x0D	; 13
     2f2:	73 e0       	ldi	r23, 0x03	; 3
     2f4:	80 e0       	ldi	r24, 0x00	; 0
     2f6:	90 e0       	ldi	r25, 0x00	; 0
     2f8:	0e 94 94 11 	call	0x2328	; 0x2328 <strtok_r>
     2fc:	ae 01       	movw	r20, r28
     2fe:	4f 5f       	subi	r20, 0xFF	; 255
     300:	5f 4f       	sbci	r21, 0xFF	; 255
     302:	6d e0       	ldi	r22, 0x0D	; 13
     304:	73 e0       	ldi	r23, 0x03	; 3
     306:	80 e0       	ldi	r24, 0x00	; 0
     308:	90 e0       	ldi	r25, 0x00	; 0
     30a:	0e 94 94 11 	call	0x2328	; 0x2328 <strtok_r>
     30e:	4c 01       	movw	r8, r24
     310:	f1 01       	movw	r30, r2
     312:	93 83       	std	Z+3, r25	; 0x03
     314:	82 83       	std	Z+2, r24	; 0x02
     316:	ae 01       	movw	r20, r28
     318:	4f 5f       	subi	r20, 0xFF	; 255
     31a:	5f 4f       	sbci	r21, 0xFF	; 255
     31c:	6d e0       	ldi	r22, 0x0D	; 13
     31e:	73 e0       	ldi	r23, 0x03	; 3
     320:	80 e0       	ldi	r24, 0x00	; 0
     322:	90 e0       	ldi	r25, 0x00	; 0
     324:	0e 94 94 11 	call	0x2328	; 0x2328 <strtok_r>
     328:	8c 01       	movw	r16, r24
     32a:	f1 01       	movw	r30, r2
     32c:	95 83       	std	Z+5, r25	; 0x05
     32e:	84 83       	std	Z+4, r24	; 0x04
     330:	ae 01       	movw	r20, r28
     332:	4f 5f       	subi	r20, 0xFF	; 255
     334:	5f 4f       	sbci	r21, 0xFF	; 255
     336:	63 e4       	ldi	r22, 0x43	; 67
     338:	72 e0       	ldi	r23, 0x02	; 2
     33a:	80 e0       	ldi	r24, 0x00	; 0
     33c:	90 e0       	ldi	r25, 0x00	; 0
     33e:	0e 94 94 11 	call	0x2328	; 0x2328 <strtok_r>
     342:	3c 01       	movw	r6, r24
     344:	f1 01       	movw	r30, r2
     346:	97 83       	std	Z+7, r25	; 0x07
     348:	86 83       	std	Z+6, r24	; 0x06
     34a:	b4 01       	movw	r22, r8
     34c:	c7 01       	movw	r24, r14
     34e:	0e 94 7f 11 	call	0x22fe	; 0x22fe <strcpy>
     352:	f7 01       	movw	r30, r14
     354:	01 90       	ld	r0, Z+
     356:	00 20       	and	r0, r0
     358:	e9 f7       	brne	.-6      	; 0x354 <nearbyAddressDelimeter+0x148>
     35a:	31 97       	sbiw	r30, 0x01	; 1
     35c:	51 82       	std	Z+1, r5	; 0x01
     35e:	40 82       	st	Z, r4
     360:	b8 01       	movw	r22, r16
     362:	c6 01       	movw	r24, r12
     364:	0e 94 7f 11 	call	0x22fe	; 0x22fe <strcpy>
     368:	f6 01       	movw	r30, r12
     36a:	01 90       	ld	r0, Z+
     36c:	00 20       	and	r0, r0
     36e:	e9 f7       	brne	.-6      	; 0x36a <nearbyAddressDelimeter+0x15e>
     370:	31 97       	sbiw	r30, 0x01	; 1
     372:	51 82       	std	Z+1, r5	; 0x01
     374:	40 82       	st	Z, r4
     376:	f7 01       	movw	r30, r14
     378:	01 90       	ld	r0, Z+
     37a:	00 20       	and	r0, r0
     37c:	e9 f7       	brne	.-6      	; 0x378 <nearbyAddressDelimeter+0x16c>
     37e:	31 97       	sbiw	r30, 0x01	; 1
     380:	cf 01       	movw	r24, r30
     382:	8e 19       	sub	r24, r14
     384:	9f 09       	sbc	r25, r15
     386:	f6 01       	movw	r30, r12
     388:	01 90       	ld	r0, Z+
     38a:	00 20       	and	r0, r0
     38c:	e9 f7       	brne	.-6      	; 0x388 <nearbyAddressDelimeter+0x17c>
     38e:	31 97       	sbiw	r30, 0x01	; 1
     390:	ec 19       	sub	r30, r12
     392:	fd 09       	sbc	r31, r13
     394:	8e 0f       	add	r24, r30
     396:	9f 1f       	adc	r25, r31
     398:	01 96       	adiw	r24, 0x01	; 1
     39a:	0e 94 32 10 	call	0x2064	; 0x2064 <malloc>
     39e:	8c 01       	movw	r16, r24
     3a0:	b7 01       	movw	r22, r14
     3a2:	0e 94 7f 11 	call	0x22fe	; 0x22fe <strcpy>
     3a6:	b6 01       	movw	r22, r12
     3a8:	c8 01       	movw	r24, r16
     3aa:	0e 94 6b 11 	call	0x22d6	; 0x22d6 <strcat>
     3ae:	f8 01       	movw	r30, r16
     3b0:	01 90       	ld	r0, Z+
     3b2:	00 20       	and	r0, r0
     3b4:	e9 f7       	brne	.-6      	; 0x3b0 <nearbyAddressDelimeter+0x1a4>
     3b6:	cf 01       	movw	r24, r30
     3b8:	80 1b       	sub	r24, r16
     3ba:	91 0b       	sbc	r25, r17
     3bc:	06 96       	adiw	r24, 0x06	; 6
     3be:	0e 94 32 10 	call	0x2064	; 0x2064 <malloc>
     3c2:	4c 01       	movw	r8, r24
     3c4:	b8 01       	movw	r22, r16
     3c6:	0e 94 7f 11 	call	0x22fe	; 0x22fe <strcpy>
     3ca:	b3 01       	movw	r22, r6
     3cc:	c4 01       	movw	r24, r8
     3ce:	0e 94 6b 11 	call	0x22d6	; 0x22d6 <strcat>
     3d2:	eb 85       	ldd	r30, Y+11	; 0x0b
     3d4:	fc 85       	ldd	r31, Y+12	; 0x0c
     3d6:	81 92       	st	Z+, r8
     3d8:	91 92       	st	Z+, r9
     3da:	fc 87       	std	Y+12, r31	; 0x0c
     3dc:	eb 87       	std	Y+11, r30	; 0x0b
     3de:	ff ef       	ldi	r31, 0xFF	; 255
     3e0:	af 1a       	sub	r10, r31
     3e2:	bf 0a       	sbc	r11, r31
     3e4:	80 91 ac 18 	lds	r24, 0x18AC	; 0x8018ac <numberOfNearbyAddresses>
     3e8:	90 91 ad 18 	lds	r25, 0x18AD	; 0x8018ad <numberOfNearbyAddresses+0x1>
     3ec:	a8 16       	cp	r10, r24
     3ee:	b9 06       	cpc	r11, r25
     3f0:	0c f4       	brge	.+2      	; 0x3f4 <nearbyAddressDelimeter+0x1e8>
     3f2:	6f cf       	rjmp	.-290    	; 0x2d2 <nearbyAddressDelimeter+0xc6>
     3f4:	80 91 bc 18 	lds	r24, 0x18BC	; 0x8018bc <numberOfRegisteredAddresses>
     3f8:	90 91 bd 18 	lds	r25, 0x18BD	; 0x8018bd <numberOfRegisteredAddresses+0x1>
     3fc:	82 30       	cpi	r24, 0x02	; 2
     3fe:	91 05       	cpc	r25, r1
     400:	b1 f1       	breq	.+108    	; 0x46e <__LOCK_REGION_LENGTH__+0x6e>
     402:	2c f4       	brge	.+10     	; 0x40e <__LOCK_REGION_LENGTH__+0xe>
     404:	00 97       	sbiw	r24, 0x00	; 0
     406:	59 f0       	breq	.+22     	; 0x41e <__LOCK_REGION_LENGTH__+0x1e>
     408:	01 97       	sbiw	r24, 0x01	; 1
     40a:	e1 f0       	breq	.+56     	; 0x444 <__LOCK_REGION_LENGTH__+0x44>
     40c:	78 c0       	rjmp	.+240    	; 0x4fe <__LOCK_REGION_LENGTH__+0xfe>
     40e:	83 30       	cpi	r24, 0x03	; 3
     410:	91 05       	cpc	r25, r1
     412:	09 f4       	brne	.+2      	; 0x416 <__LOCK_REGION_LENGTH__+0x16>
     414:	43 c0       	rjmp	.+134    	; 0x49c <__LOCK_REGION_LENGTH__+0x9c>
     416:	04 97       	sbiw	r24, 0x04	; 4
     418:	09 f4       	brne	.+2      	; 0x41c <__LOCK_REGION_LENGTH__+0x1c>
     41a:	59 c0       	rjmp	.+178    	; 0x4ce <__LOCK_REGION_LENGTH__+0xce>
     41c:	70 c0       	rjmp	.+224    	; 0x4fe <__LOCK_REGION_LENGTH__+0xfe>
     41e:	85 e4       	ldi	r24, 0x45	; 69
     420:	92 e0       	ldi	r25, 0x02	; 2
     422:	90 93 a9 18 	sts	0x18A9, r25	; 0x8018a9 <nearbyDevice1Address+0x1>
     426:	80 93 a8 18 	sts	0x18A8, r24	; 0x8018a8 <nearbyDevice1Address>
     42a:	90 93 b3 18 	sts	0x18B3, r25	; 0x8018b3 <nearbyDevice2Address+0x1>
     42e:	80 93 b2 18 	sts	0x18B2, r24	; 0x8018b2 <nearbyDevice2Address>
     432:	90 93 b1 18 	sts	0x18B1, r25	; 0x8018b1 <nearbyDevice3Address+0x1>
     436:	80 93 b0 18 	sts	0x18B0, r24	; 0x8018b0 <nearbyDevice3Address>
     43a:	90 93 bb 18 	sts	0x18BB, r25	; 0x8018bb <nearbyDevice4Address+0x1>
     43e:	80 93 ba 18 	sts	0x18BA, r24	; 0x8018ba <nearbyDevice4Address>
     442:	5d c0       	rjmp	.+186    	; 0x4fe <__LOCK_REGION_LENGTH__+0xfe>
     444:	8b 81       	ldd	r24, Y+3	; 0x03
     446:	9c 81       	ldd	r25, Y+4	; 0x04
     448:	90 93 a9 18 	sts	0x18A9, r25	; 0x8018a9 <nearbyDevice1Address+0x1>
     44c:	80 93 a8 18 	sts	0x18A8, r24	; 0x8018a8 <nearbyDevice1Address>
     450:	85 e4       	ldi	r24, 0x45	; 69
     452:	92 e0       	ldi	r25, 0x02	; 2
     454:	90 93 b3 18 	sts	0x18B3, r25	; 0x8018b3 <nearbyDevice2Address+0x1>
     458:	80 93 b2 18 	sts	0x18B2, r24	; 0x8018b2 <nearbyDevice2Address>
     45c:	90 93 b1 18 	sts	0x18B1, r25	; 0x8018b1 <nearbyDevice3Address+0x1>
     460:	80 93 b0 18 	sts	0x18B0, r24	; 0x8018b0 <nearbyDevice3Address>
     464:	90 93 bb 18 	sts	0x18BB, r25	; 0x8018bb <nearbyDevice4Address+0x1>
     468:	80 93 ba 18 	sts	0x18BA, r24	; 0x8018ba <nearbyDevice4Address>
     46c:	48 c0       	rjmp	.+144    	; 0x4fe <__LOCK_REGION_LENGTH__+0xfe>
     46e:	8b 81       	ldd	r24, Y+3	; 0x03
     470:	9c 81       	ldd	r25, Y+4	; 0x04
     472:	90 93 a9 18 	sts	0x18A9, r25	; 0x8018a9 <nearbyDevice1Address+0x1>
     476:	80 93 a8 18 	sts	0x18A8, r24	; 0x8018a8 <nearbyDevice1Address>
     47a:	8d 81       	ldd	r24, Y+5	; 0x05
     47c:	9e 81       	ldd	r25, Y+6	; 0x06
     47e:	90 93 b3 18 	sts	0x18B3, r25	; 0x8018b3 <nearbyDevice2Address+0x1>
     482:	80 93 b2 18 	sts	0x18B2, r24	; 0x8018b2 <nearbyDevice2Address>
     486:	85 e4       	ldi	r24, 0x45	; 69
     488:	92 e0       	ldi	r25, 0x02	; 2
     48a:	90 93 b1 18 	sts	0x18B1, r25	; 0x8018b1 <nearbyDevice3Address+0x1>
     48e:	80 93 b0 18 	sts	0x18B0, r24	; 0x8018b0 <nearbyDevice3Address>
     492:	90 93 bb 18 	sts	0x18BB, r25	; 0x8018bb <nearbyDevice4Address+0x1>
     496:	80 93 ba 18 	sts	0x18BA, r24	; 0x8018ba <nearbyDevice4Address>
     49a:	31 c0       	rjmp	.+98     	; 0x4fe <__LOCK_REGION_LENGTH__+0xfe>
     49c:	8b 81       	ldd	r24, Y+3	; 0x03
     49e:	9c 81       	ldd	r25, Y+4	; 0x04
     4a0:	90 93 a9 18 	sts	0x18A9, r25	; 0x8018a9 <nearbyDevice1Address+0x1>
     4a4:	80 93 a8 18 	sts	0x18A8, r24	; 0x8018a8 <nearbyDevice1Address>
     4a8:	8d 81       	ldd	r24, Y+5	; 0x05
     4aa:	9e 81       	ldd	r25, Y+6	; 0x06
     4ac:	90 93 b3 18 	sts	0x18B3, r25	; 0x8018b3 <nearbyDevice2Address+0x1>
     4b0:	80 93 b2 18 	sts	0x18B2, r24	; 0x8018b2 <nearbyDevice2Address>
     4b4:	8f 81       	ldd	r24, Y+7	; 0x07
     4b6:	98 85       	ldd	r25, Y+8	; 0x08
     4b8:	90 93 b1 18 	sts	0x18B1, r25	; 0x8018b1 <nearbyDevice3Address+0x1>
     4bc:	80 93 b0 18 	sts	0x18B0, r24	; 0x8018b0 <nearbyDevice3Address>
     4c0:	85 e4       	ldi	r24, 0x45	; 69
     4c2:	92 e0       	ldi	r25, 0x02	; 2
     4c4:	90 93 bb 18 	sts	0x18BB, r25	; 0x8018bb <nearbyDevice4Address+0x1>
     4c8:	80 93 ba 18 	sts	0x18BA, r24	; 0x8018ba <nearbyDevice4Address>
     4cc:	18 c0       	rjmp	.+48     	; 0x4fe <__LOCK_REGION_LENGTH__+0xfe>
     4ce:	8b 81       	ldd	r24, Y+3	; 0x03
     4d0:	9c 81       	ldd	r25, Y+4	; 0x04
     4d2:	90 93 a9 18 	sts	0x18A9, r25	; 0x8018a9 <nearbyDevice1Address+0x1>
     4d6:	80 93 a8 18 	sts	0x18A8, r24	; 0x8018a8 <nearbyDevice1Address>
     4da:	8d 81       	ldd	r24, Y+5	; 0x05
     4dc:	9e 81       	ldd	r25, Y+6	; 0x06
     4de:	90 93 b3 18 	sts	0x18B3, r25	; 0x8018b3 <nearbyDevice2Address+0x1>
     4e2:	80 93 b2 18 	sts	0x18B2, r24	; 0x8018b2 <nearbyDevice2Address>
     4e6:	8f 81       	ldd	r24, Y+7	; 0x07
     4e8:	98 85       	ldd	r25, Y+8	; 0x08
     4ea:	90 93 b1 18 	sts	0x18B1, r25	; 0x8018b1 <nearbyDevice3Address+0x1>
     4ee:	80 93 b0 18 	sts	0x18B0, r24	; 0x8018b0 <nearbyDevice3Address>
     4f2:	89 85       	ldd	r24, Y+9	; 0x09
     4f4:	9a 85       	ldd	r25, Y+10	; 0x0a
     4f6:	90 93 bb 18 	sts	0x18BB, r25	; 0x8018bb <nearbyDevice4Address+0x1>
     4fa:	80 93 ba 18 	sts	0x18BA, r24	; 0x8018ba <nearbyDevice4Address>
     4fe:	2c 96       	adiw	r28, 0x0c	; 12
     500:	0f b6       	in	r0, 0x3f	; 63
     502:	f8 94       	cli
     504:	de bf       	out	0x3e, r29	; 62
     506:	0f be       	out	0x3f, r0	; 63
     508:	cd bf       	out	0x3d, r28	; 61
     50a:	df 91       	pop	r29
     50c:	cf 91       	pop	r28
     50e:	1f 91       	pop	r17
     510:	0f 91       	pop	r16
     512:	ff 90       	pop	r15
     514:	ef 90       	pop	r14
     516:	df 90       	pop	r13
     518:	cf 90       	pop	r12
     51a:	bf 90       	pop	r11
     51c:	af 90       	pop	r10
     51e:	9f 90       	pop	r9
     520:	8f 90       	pop	r8
     522:	7f 90       	pop	r7
     524:	6f 90       	pop	r6
     526:	5f 90       	pop	r5
     528:	4f 90       	pop	r4
     52a:	3f 90       	pop	r3
     52c:	2f 90       	pop	r2
     52e:	08 95       	ret

00000530 <nearbyDevicesScan>:
     530:	ef 92       	push	r14
     532:	ff 92       	push	r15
     534:	0f 93       	push	r16
     536:	1f 93       	push	r17
     538:	cf 93       	push	r28
     53a:	df 93       	push	r29
     53c:	cd b7       	in	r28, 0x3d	; 61
     53e:	de b7       	in	r29, 0x3e	; 62
     540:	cc 52       	subi	r28, 0x2C	; 44
     542:	d1 40       	sbci	r29, 0x01	; 1
     544:	0f b6       	in	r0, 0x3f	; 63
     546:	f8 94       	cli
     548:	de bf       	out	0x3e, r29	; 62
     54a:	0f be       	out	0x3f, r0	; 63
     54c:	cd bf       	out	0x3d, r28	; 61
     54e:	10 92 ad 18 	sts	0x18AD, r1	; 0x8018ad <numberOfNearbyAddresses+0x1>
     552:	10 92 ac 18 	sts	0x18AC, r1	; 0x8018ac <numberOfNearbyAddresses>
     556:	89 e4       	ldi	r24, 0x49	; 73
     558:	92 e0       	ldi	r25, 0x02	; 2
     55a:	e6 dd       	rcall	.-1076   	; 0x128 <SendStringCRLF>
     55c:	8e 01       	movw	r16, r28
     55e:	01 50       	subi	r16, 0x01	; 1
     560:	11 09       	sbc	r17, r1
     562:	7e 01       	movw	r14, r28
     564:	85 ed       	ldi	r24, 0xD5	; 213
     566:	e8 1a       	sub	r14, r24
     568:	8e ef       	ldi	r24, 0xFE	; 254
     56a:	f8 0a       	sbc	r15, r24
     56c:	0e 94 bc 0f 	call	0x1f78	; 0x1f78 <ReadChar>
     570:	f8 01       	movw	r30, r16
     572:	82 83       	std	Z+2, r24	; 0x02
     574:	90 81       	ld	r25, Z
     576:	0f 5f       	subi	r16, 0xFF	; 255
     578:	1f 4f       	sbci	r17, 0xFF	; 255
     57a:	9f 34       	cpi	r25, 0x4F	; 79
     57c:	31 f4       	brne	.+12     	; 0x58a <nearbyDevicesScan+0x5a>
     57e:	d8 01       	movw	r26, r16
     580:	9c 91       	ld	r25, X
     582:	9b 34       	cpi	r25, 0x4B	; 75
     584:	11 f4       	brne	.+4      	; 0x58a <nearbyDevicesScan+0x5a>
     586:	8d 30       	cpi	r24, 0x0D	; 13
     588:	19 f0       	breq	.+6      	; 0x590 <nearbyDevicesScan+0x60>
     58a:	0e 15       	cp	r16, r14
     58c:	1f 05       	cpc	r17, r15
     58e:	71 f7       	brne	.-36     	; 0x56c <nearbyDevicesScan+0x3c>
     590:	ce 01       	movw	r24, r28
     592:	01 96       	adiw	r24, 0x01	; 1
     594:	3b de       	rcall	.-906    	; 0x20c <nearbyAddressDelimeter>
     596:	87 e8       	ldi	r24, 0x87	; 135
     598:	92 e0       	ldi	r25, 0x02	; 2
     59a:	c6 dd       	rcall	.-1140   	; 0x128 <SendStringCRLF>
     59c:	80 e5       	ldi	r24, 0x50	; 80
     59e:	92 e0       	ldi	r25, 0x02	; 2
     5a0:	0e 94 cc 0f 	call	0x1f98	; 0x1f98 <SendString>
     5a4:	80 91 a8 18 	lds	r24, 0x18A8	; 0x8018a8 <nearbyDevice1Address>
     5a8:	90 91 a9 18 	lds	r25, 0x18A9	; 0x8018a9 <nearbyDevice1Address+0x1>
     5ac:	bd dd       	rcall	.-1158   	; 0x128 <SendStringCRLF>
     5ae:	8b e5       	ldi	r24, 0x5B	; 91
     5b0:	92 e0       	ldi	r25, 0x02	; 2
     5b2:	0e 94 cc 0f 	call	0x1f98	; 0x1f98 <SendString>
     5b6:	80 91 b2 18 	lds	r24, 0x18B2	; 0x8018b2 <nearbyDevice2Address>
     5ba:	90 91 b3 18 	lds	r25, 0x18B3	; 0x8018b3 <nearbyDevice2Address+0x1>
     5be:	b4 dd       	rcall	.-1176   	; 0x128 <SendStringCRLF>
     5c0:	86 e6       	ldi	r24, 0x66	; 102
     5c2:	92 e0       	ldi	r25, 0x02	; 2
     5c4:	0e 94 cc 0f 	call	0x1f98	; 0x1f98 <SendString>
     5c8:	80 91 b0 18 	lds	r24, 0x18B0	; 0x8018b0 <nearbyDevice3Address>
     5cc:	90 91 b1 18 	lds	r25, 0x18B1	; 0x8018b1 <nearbyDevice3Address+0x1>
     5d0:	ab dd       	rcall	.-1194   	; 0x128 <SendStringCRLF>
     5d2:	81 e7       	ldi	r24, 0x71	; 113
     5d4:	92 e0       	ldi	r25, 0x02	; 2
     5d6:	0e 94 cc 0f 	call	0x1f98	; 0x1f98 <SendString>
     5da:	80 91 ba 18 	lds	r24, 0x18BA	; 0x8018ba <nearbyDevice4Address>
     5de:	90 91 bb 18 	lds	r25, 0x18BB	; 0x8018bb <nearbyDevice4Address+0x1>
     5e2:	a2 dd       	rcall	.-1212   	; 0x128 <SendStringCRLF>
     5e4:	c4 5d       	subi	r28, 0xD4	; 212
     5e6:	de 4f       	sbci	r29, 0xFE	; 254
     5e8:	0f b6       	in	r0, 0x3f	; 63
     5ea:	f8 94       	cli
     5ec:	de bf       	out	0x3e, r29	; 62
     5ee:	0f be       	out	0x3f, r0	; 63
     5f0:	cd bf       	out	0x3d, r28	; 61
     5f2:	df 91       	pop	r29
     5f4:	cf 91       	pop	r28
     5f6:	1f 91       	pop	r17
     5f8:	0f 91       	pop	r16
     5fa:	ff 90       	pop	r15
     5fc:	ef 90       	pop	r14
     5fe:	08 95       	ret

00000600 <trustedAddressDelimeter>:
     600:	2f 92       	push	r2
     602:	3f 92       	push	r3
     604:	4f 92       	push	r4
     606:	5f 92       	push	r5
     608:	6f 92       	push	r6
     60a:	7f 92       	push	r7
     60c:	8f 92       	push	r8
     60e:	9f 92       	push	r9
     610:	af 92       	push	r10
     612:	bf 92       	push	r11
     614:	cf 92       	push	r12
     616:	df 92       	push	r13
     618:	ef 92       	push	r14
     61a:	ff 92       	push	r15
     61c:	0f 93       	push	r16
     61e:	1f 93       	push	r17
     620:	cf 93       	push	r28
     622:	df 93       	push	r29
     624:	cd b7       	in	r28, 0x3d	; 61
     626:	de b7       	in	r29, 0x3e	; 62
     628:	2c 97       	sbiw	r28, 0x0c	; 12
     62a:	0f b6       	in	r0, 0x3f	; 63
     62c:	f8 94       	cli
     62e:	de bf       	out	0x3e, r29	; 62
     630:	0f be       	out	0x3f, r0	; 63
     632:	cd bf       	out	0x3d, r28	; 61
     634:	8c 01       	movw	r16, r24
     636:	fc 01       	movw	r30, r24
     638:	33 97       	sbiw	r30, 0x03	; 3
     63a:	9c 01       	movw	r18, r24
     63c:	27 5d       	subi	r18, 0xD7	; 215
     63e:	3e 4f       	sbci	r19, 0xFE	; 254
     640:	81 91       	ld	r24, Z+
     642:	8b 32       	cpi	r24, 0x2B	; 43
     644:	91 f4       	brne	.+36     	; 0x66a <trustedAddressDelimeter+0x6a>
     646:	80 81       	ld	r24, Z
     648:	89 34       	cpi	r24, 0x49	; 73
     64a:	79 f4       	brne	.+30     	; 0x66a <trustedAddressDelimeter+0x6a>
     64c:	81 81       	ldd	r24, Z+1	; 0x01
     64e:	8e 34       	cpi	r24, 0x4E	; 78
     650:	61 f4       	brne	.+24     	; 0x66a <trustedAddressDelimeter+0x6a>
     652:	82 81       	ldd	r24, Z+2	; 0x02
     654:	81 35       	cpi	r24, 0x51	; 81
     656:	49 f4       	brne	.+18     	; 0x66a <trustedAddressDelimeter+0x6a>
     658:	80 91 bc 18 	lds	r24, 0x18BC	; 0x8018bc <numberOfRegisteredAddresses>
     65c:	90 91 bd 18 	lds	r25, 0x18BD	; 0x8018bd <numberOfRegisteredAddresses+0x1>
     660:	01 96       	adiw	r24, 0x01	; 1
     662:	90 93 bd 18 	sts	0x18BD, r25	; 0x8018bd <numberOfRegisteredAddresses+0x1>
     666:	80 93 bc 18 	sts	0x18BC, r24	; 0x8018bc <numberOfRegisteredAddresses>
     66a:	e2 17       	cp	r30, r18
     66c:	f3 07       	cpc	r31, r19
     66e:	41 f7       	brne	.-48     	; 0x640 <trustedAddressDelimeter+0x40>
     670:	85 e0       	ldi	r24, 0x05	; 5
     672:	90 e0       	ldi	r25, 0x00	; 0
     674:	0e 94 32 10 	call	0x2064	; 0x2064 <malloc>
     678:	7c 01       	movw	r14, r24
     67a:	83 e0       	ldi	r24, 0x03	; 3
     67c:	90 e0       	ldi	r25, 0x00	; 0
     67e:	0e 94 32 10 	call	0x2064	; 0x2064 <malloc>
     682:	6c 01       	movw	r12, r24
     684:	ae 01       	movw	r20, r28
     686:	4f 5f       	subi	r20, 0xFF	; 255
     688:	5f 4f       	sbci	r21, 0xFF	; 255
     68a:	6d e0       	ldi	r22, 0x0D	; 13
     68c:	73 e0       	ldi	r23, 0x03	; 3
     68e:	c8 01       	movw	r24, r16
     690:	0e 94 94 11 	call	0x2328	; 0x2328 <strtok_r>
     694:	83 e0       	ldi	r24, 0x03	; 3
     696:	90 e0       	ldi	r25, 0x00	; 0
     698:	0e 94 32 10 	call	0x2064	; 0x2064 <malloc>
     69c:	1c 01       	movw	r2, r24
     69e:	80 91 bc 18 	lds	r24, 0x18BC	; 0x8018bc <numberOfRegisteredAddresses>
     6a2:	90 91 bd 18 	lds	r25, 0x18BD	; 0x8018bd <numberOfRegisteredAddresses+0x1>
     6a6:	18 16       	cp	r1, r24
     6a8:	19 06       	cpc	r1, r25
     6aa:	0c f0       	brlt	.+2      	; 0x6ae <trustedAddressDelimeter+0xae>
     6ac:	9d c0       	rjmp	.+314    	; 0x7e8 <trustedAddressDelimeter+0x1e8>
     6ae:	ce 01       	movw	r24, r28
     6b0:	03 96       	adiw	r24, 0x03	; 3
     6b2:	9c 87       	std	Y+12, r25	; 0x0c
     6b4:	8b 87       	std	Y+11, r24	; 0x0b
     6b6:	a1 2c       	mov	r10, r1
     6b8:	b1 2c       	mov	r11, r1
     6ba:	0f 2e       	mov	r0, r31
     6bc:	fc e2       	ldi	r31, 0x2C	; 44
     6be:	4f 2e       	mov	r4, r31
     6c0:	51 2c       	mov	r5, r1
     6c2:	f0 2d       	mov	r31, r0
     6c4:	15 c0       	rjmp	.+42     	; 0x6f0 <trustedAddressDelimeter+0xf0>
     6c6:	1a 14       	cp	r1, r10
     6c8:	1b 04       	cpc	r1, r11
     6ca:	94 f4       	brge	.+36     	; 0x6f0 <trustedAddressDelimeter+0xf0>
     6cc:	ae 01       	movw	r20, r28
     6ce:	4f 5f       	subi	r20, 0xFF	; 255
     6d0:	5f 4f       	sbci	r21, 0xFF	; 255
     6d2:	63 e4       	ldi	r22, 0x43	; 67
     6d4:	72 e0       	ldi	r23, 0x02	; 2
     6d6:	80 e0       	ldi	r24, 0x00	; 0
     6d8:	90 e0       	ldi	r25, 0x00	; 0
     6da:	0e 94 94 11 	call	0x2328	; 0x2328 <strtok_r>
     6de:	ae 01       	movw	r20, r28
     6e0:	4f 5f       	subi	r20, 0xFF	; 255
     6e2:	5f 4f       	sbci	r21, 0xFF	; 255
     6e4:	6d e0       	ldi	r22, 0x0D	; 13
     6e6:	73 e0       	ldi	r23, 0x03	; 3
     6e8:	80 e0       	ldi	r24, 0x00	; 0
     6ea:	90 e0       	ldi	r25, 0x00	; 0
     6ec:	0e 94 94 11 	call	0x2328	; 0x2328 <strtok_r>
     6f0:	ae 01       	movw	r20, r28
     6f2:	4f 5f       	subi	r20, 0xFF	; 255
     6f4:	5f 4f       	sbci	r21, 0xFF	; 255
     6f6:	6d e0       	ldi	r22, 0x0D	; 13
     6f8:	73 e0       	ldi	r23, 0x03	; 3
     6fa:	80 e0       	ldi	r24, 0x00	; 0
     6fc:	90 e0       	ldi	r25, 0x00	; 0
     6fe:	0e 94 94 11 	call	0x2328	; 0x2328 <strtok_r>
     702:	4c 01       	movw	r8, r24
     704:	f1 01       	movw	r30, r2
     706:	93 83       	std	Z+3, r25	; 0x03
     708:	82 83       	std	Z+2, r24	; 0x02
     70a:	ae 01       	movw	r20, r28
     70c:	4f 5f       	subi	r20, 0xFF	; 255
     70e:	5f 4f       	sbci	r21, 0xFF	; 255
     710:	6d e0       	ldi	r22, 0x0D	; 13
     712:	73 e0       	ldi	r23, 0x03	; 3
     714:	80 e0       	ldi	r24, 0x00	; 0
     716:	90 e0       	ldi	r25, 0x00	; 0
     718:	0e 94 94 11 	call	0x2328	; 0x2328 <strtok_r>
     71c:	8c 01       	movw	r16, r24
     71e:	f1 01       	movw	r30, r2
     720:	95 83       	std	Z+5, r25	; 0x05
     722:	84 83       	std	Z+4, r24	; 0x04
     724:	ae 01       	movw	r20, r28
     726:	4f 5f       	subi	r20, 0xFF	; 255
     728:	5f 4f       	sbci	r21, 0xFF	; 255
     72a:	63 e4       	ldi	r22, 0x43	; 67
     72c:	72 e0       	ldi	r23, 0x02	; 2
     72e:	80 e0       	ldi	r24, 0x00	; 0
     730:	90 e0       	ldi	r25, 0x00	; 0
     732:	0e 94 94 11 	call	0x2328	; 0x2328 <strtok_r>
     736:	3c 01       	movw	r6, r24
     738:	f1 01       	movw	r30, r2
     73a:	97 83       	std	Z+7, r25	; 0x07
     73c:	86 83       	std	Z+6, r24	; 0x06
     73e:	b4 01       	movw	r22, r8
     740:	c7 01       	movw	r24, r14
     742:	0e 94 7f 11 	call	0x22fe	; 0x22fe <strcpy>
     746:	f7 01       	movw	r30, r14
     748:	01 90       	ld	r0, Z+
     74a:	00 20       	and	r0, r0
     74c:	e9 f7       	brne	.-6      	; 0x748 <trustedAddressDelimeter+0x148>
     74e:	31 97       	sbiw	r30, 0x01	; 1
     750:	51 82       	std	Z+1, r5	; 0x01
     752:	40 82       	st	Z, r4
     754:	b8 01       	movw	r22, r16
     756:	c6 01       	movw	r24, r12
     758:	0e 94 7f 11 	call	0x22fe	; 0x22fe <strcpy>
     75c:	f6 01       	movw	r30, r12
     75e:	01 90       	ld	r0, Z+
     760:	00 20       	and	r0, r0
     762:	e9 f7       	brne	.-6      	; 0x75e <trustedAddressDelimeter+0x15e>
     764:	31 97       	sbiw	r30, 0x01	; 1
     766:	51 82       	std	Z+1, r5	; 0x01
     768:	40 82       	st	Z, r4
     76a:	f7 01       	movw	r30, r14
     76c:	01 90       	ld	r0, Z+
     76e:	00 20       	and	r0, r0
     770:	e9 f7       	brne	.-6      	; 0x76c <trustedAddressDelimeter+0x16c>
     772:	31 97       	sbiw	r30, 0x01	; 1
     774:	cf 01       	movw	r24, r30
     776:	8e 19       	sub	r24, r14
     778:	9f 09       	sbc	r25, r15
     77a:	f6 01       	movw	r30, r12
     77c:	01 90       	ld	r0, Z+
     77e:	00 20       	and	r0, r0
     780:	e9 f7       	brne	.-6      	; 0x77c <trustedAddressDelimeter+0x17c>
     782:	31 97       	sbiw	r30, 0x01	; 1
     784:	ec 19       	sub	r30, r12
     786:	fd 09       	sbc	r31, r13
     788:	8e 0f       	add	r24, r30
     78a:	9f 1f       	adc	r25, r31
     78c:	01 96       	adiw	r24, 0x01	; 1
     78e:	0e 94 32 10 	call	0x2064	; 0x2064 <malloc>
     792:	8c 01       	movw	r16, r24
     794:	b7 01       	movw	r22, r14
     796:	0e 94 7f 11 	call	0x22fe	; 0x22fe <strcpy>
     79a:	b6 01       	movw	r22, r12
     79c:	c8 01       	movw	r24, r16
     79e:	0e 94 6b 11 	call	0x22d6	; 0x22d6 <strcat>
     7a2:	f8 01       	movw	r30, r16
     7a4:	01 90       	ld	r0, Z+
     7a6:	00 20       	and	r0, r0
     7a8:	e9 f7       	brne	.-6      	; 0x7a4 <trustedAddressDelimeter+0x1a4>
     7aa:	cf 01       	movw	r24, r30
     7ac:	80 1b       	sub	r24, r16
     7ae:	91 0b       	sbc	r25, r17
     7b0:	06 96       	adiw	r24, 0x06	; 6
     7b2:	0e 94 32 10 	call	0x2064	; 0x2064 <malloc>
     7b6:	4c 01       	movw	r8, r24
     7b8:	b8 01       	movw	r22, r16
     7ba:	0e 94 7f 11 	call	0x22fe	; 0x22fe <strcpy>
     7be:	b3 01       	movw	r22, r6
     7c0:	c4 01       	movw	r24, r8
     7c2:	0e 94 6b 11 	call	0x22d6	; 0x22d6 <strcat>
     7c6:	eb 85       	ldd	r30, Y+11	; 0x0b
     7c8:	fc 85       	ldd	r31, Y+12	; 0x0c
     7ca:	81 92       	st	Z+, r8
     7cc:	91 92       	st	Z+, r9
     7ce:	fc 87       	std	Y+12, r31	; 0x0c
     7d0:	eb 87       	std	Y+11, r30	; 0x0b
     7d2:	ff ef       	ldi	r31, 0xFF	; 255
     7d4:	af 1a       	sub	r10, r31
     7d6:	bf 0a       	sbc	r11, r31
     7d8:	80 91 bc 18 	lds	r24, 0x18BC	; 0x8018bc <numberOfRegisteredAddresses>
     7dc:	90 91 bd 18 	lds	r25, 0x18BD	; 0x8018bd <numberOfRegisteredAddresses+0x1>
     7e0:	a8 16       	cp	r10, r24
     7e2:	b9 06       	cpc	r11, r25
     7e4:	0c f4       	brge	.+2      	; 0x7e8 <trustedAddressDelimeter+0x1e8>
     7e6:	6f cf       	rjmp	.-290    	; 0x6c6 <trustedAddressDelimeter+0xc6>
     7e8:	82 30       	cpi	r24, 0x02	; 2
     7ea:	91 05       	cpc	r25, r1
     7ec:	b1 f1       	breq	.+108    	; 0x85a <trustedAddressDelimeter+0x25a>
     7ee:	2c f4       	brge	.+10     	; 0x7fa <trustedAddressDelimeter+0x1fa>
     7f0:	00 97       	sbiw	r24, 0x00	; 0
     7f2:	59 f0       	breq	.+22     	; 0x80a <trustedAddressDelimeter+0x20a>
     7f4:	01 97       	sbiw	r24, 0x01	; 1
     7f6:	e1 f0       	breq	.+56     	; 0x830 <trustedAddressDelimeter+0x230>
     7f8:	78 c0       	rjmp	.+240    	; 0x8ea <trustedAddressDelimeter+0x2ea>
     7fa:	83 30       	cpi	r24, 0x03	; 3
     7fc:	91 05       	cpc	r25, r1
     7fe:	09 f4       	brne	.+2      	; 0x802 <trustedAddressDelimeter+0x202>
     800:	43 c0       	rjmp	.+134    	; 0x888 <trustedAddressDelimeter+0x288>
     802:	04 97       	sbiw	r24, 0x04	; 4
     804:	09 f4       	brne	.+2      	; 0x808 <trustedAddressDelimeter+0x208>
     806:	59 c0       	rjmp	.+178    	; 0x8ba <trustedAddressDelimeter+0x2ba>
     808:	70 c0       	rjmp	.+224    	; 0x8ea <trustedAddressDelimeter+0x2ea>
     80a:	85 e4       	ldi	r24, 0x45	; 69
     80c:	92 e0       	ldi	r25, 0x02	; 2
     80e:	90 93 ab 18 	sts	0x18AB, r25	; 0x8018ab <trustedDevice1Address+0x1>
     812:	80 93 aa 18 	sts	0x18AA, r24	; 0x8018aa <trustedDevice1Address>
     816:	90 93 bf 18 	sts	0x18BF, r25	; 0x8018bf <trustedDevice2Address+0x1>
     81a:	80 93 be 18 	sts	0x18BE, r24	; 0x8018be <trustedDevice2Address>
     81e:	90 93 af 18 	sts	0x18AF, r25	; 0x8018af <trustedDevice3Address+0x1>
     822:	80 93 ae 18 	sts	0x18AE, r24	; 0x8018ae <trustedDevice3Address>
     826:	90 93 a7 18 	sts	0x18A7, r25	; 0x8018a7 <trustedDevice4Address+0x1>
     82a:	80 93 a6 18 	sts	0x18A6, r24	; 0x8018a6 <trustedDevice4Address>
     82e:	5d c0       	rjmp	.+186    	; 0x8ea <trustedAddressDelimeter+0x2ea>
     830:	8b 81       	ldd	r24, Y+3	; 0x03
     832:	9c 81       	ldd	r25, Y+4	; 0x04
     834:	90 93 ab 18 	sts	0x18AB, r25	; 0x8018ab <trustedDevice1Address+0x1>
     838:	80 93 aa 18 	sts	0x18AA, r24	; 0x8018aa <trustedDevice1Address>
     83c:	85 e4       	ldi	r24, 0x45	; 69
     83e:	92 e0       	ldi	r25, 0x02	; 2
     840:	90 93 bf 18 	sts	0x18BF, r25	; 0x8018bf <trustedDevice2Address+0x1>
     844:	80 93 be 18 	sts	0x18BE, r24	; 0x8018be <trustedDevice2Address>
     848:	90 93 af 18 	sts	0x18AF, r25	; 0x8018af <trustedDevice3Address+0x1>
     84c:	80 93 ae 18 	sts	0x18AE, r24	; 0x8018ae <trustedDevice3Address>
     850:	90 93 a7 18 	sts	0x18A7, r25	; 0x8018a7 <trustedDevice4Address+0x1>
     854:	80 93 a6 18 	sts	0x18A6, r24	; 0x8018a6 <trustedDevice4Address>
     858:	48 c0       	rjmp	.+144    	; 0x8ea <trustedAddressDelimeter+0x2ea>
     85a:	8b 81       	ldd	r24, Y+3	; 0x03
     85c:	9c 81       	ldd	r25, Y+4	; 0x04
     85e:	90 93 ab 18 	sts	0x18AB, r25	; 0x8018ab <trustedDevice1Address+0x1>
     862:	80 93 aa 18 	sts	0x18AA, r24	; 0x8018aa <trustedDevice1Address>
     866:	8d 81       	ldd	r24, Y+5	; 0x05
     868:	9e 81       	ldd	r25, Y+6	; 0x06
     86a:	90 93 bf 18 	sts	0x18BF, r25	; 0x8018bf <trustedDevice2Address+0x1>
     86e:	80 93 be 18 	sts	0x18BE, r24	; 0x8018be <trustedDevice2Address>
     872:	85 e4       	ldi	r24, 0x45	; 69
     874:	92 e0       	ldi	r25, 0x02	; 2
     876:	90 93 af 18 	sts	0x18AF, r25	; 0x8018af <trustedDevice3Address+0x1>
     87a:	80 93 ae 18 	sts	0x18AE, r24	; 0x8018ae <trustedDevice3Address>
     87e:	90 93 a7 18 	sts	0x18A7, r25	; 0x8018a7 <trustedDevice4Address+0x1>
     882:	80 93 a6 18 	sts	0x18A6, r24	; 0x8018a6 <trustedDevice4Address>
     886:	31 c0       	rjmp	.+98     	; 0x8ea <trustedAddressDelimeter+0x2ea>
     888:	8b 81       	ldd	r24, Y+3	; 0x03
     88a:	9c 81       	ldd	r25, Y+4	; 0x04
     88c:	90 93 ab 18 	sts	0x18AB, r25	; 0x8018ab <trustedDevice1Address+0x1>
     890:	80 93 aa 18 	sts	0x18AA, r24	; 0x8018aa <trustedDevice1Address>
     894:	8d 81       	ldd	r24, Y+5	; 0x05
     896:	9e 81       	ldd	r25, Y+6	; 0x06
     898:	90 93 bf 18 	sts	0x18BF, r25	; 0x8018bf <trustedDevice2Address+0x1>
     89c:	80 93 be 18 	sts	0x18BE, r24	; 0x8018be <trustedDevice2Address>
     8a0:	8f 81       	ldd	r24, Y+7	; 0x07
     8a2:	98 85       	ldd	r25, Y+8	; 0x08
     8a4:	90 93 af 18 	sts	0x18AF, r25	; 0x8018af <trustedDevice3Address+0x1>
     8a8:	80 93 ae 18 	sts	0x18AE, r24	; 0x8018ae <trustedDevice3Address>
     8ac:	85 e4       	ldi	r24, 0x45	; 69
     8ae:	92 e0       	ldi	r25, 0x02	; 2
     8b0:	90 93 a7 18 	sts	0x18A7, r25	; 0x8018a7 <trustedDevice4Address+0x1>
     8b4:	80 93 a6 18 	sts	0x18A6, r24	; 0x8018a6 <trustedDevice4Address>
     8b8:	18 c0       	rjmp	.+48     	; 0x8ea <trustedAddressDelimeter+0x2ea>
     8ba:	8b 81       	ldd	r24, Y+3	; 0x03
     8bc:	9c 81       	ldd	r25, Y+4	; 0x04
     8be:	90 93 ab 18 	sts	0x18AB, r25	; 0x8018ab <trustedDevice1Address+0x1>
     8c2:	80 93 aa 18 	sts	0x18AA, r24	; 0x8018aa <trustedDevice1Address>
     8c6:	8d 81       	ldd	r24, Y+5	; 0x05
     8c8:	9e 81       	ldd	r25, Y+6	; 0x06
     8ca:	90 93 bf 18 	sts	0x18BF, r25	; 0x8018bf <trustedDevice2Address+0x1>
     8ce:	80 93 be 18 	sts	0x18BE, r24	; 0x8018be <trustedDevice2Address>
     8d2:	8f 81       	ldd	r24, Y+7	; 0x07
     8d4:	98 85       	ldd	r25, Y+8	; 0x08
     8d6:	90 93 af 18 	sts	0x18AF, r25	; 0x8018af <trustedDevice3Address+0x1>
     8da:	80 93 ae 18 	sts	0x18AE, r24	; 0x8018ae <trustedDevice3Address>
     8de:	89 85       	ldd	r24, Y+9	; 0x09
     8e0:	9a 85       	ldd	r25, Y+10	; 0x0a
     8e2:	90 93 a7 18 	sts	0x18A7, r25	; 0x8018a7 <trustedDevice4Address+0x1>
     8e6:	80 93 a6 18 	sts	0x18A6, r24	; 0x8018a6 <trustedDevice4Address>
     8ea:	2c 96       	adiw	r28, 0x0c	; 12
     8ec:	0f b6       	in	r0, 0x3f	; 63
     8ee:	f8 94       	cli
     8f0:	de bf       	out	0x3e, r29	; 62
     8f2:	0f be       	out	0x3f, r0	; 63
     8f4:	cd bf       	out	0x3d, r28	; 61
     8f6:	df 91       	pop	r29
     8f8:	cf 91       	pop	r28
     8fa:	1f 91       	pop	r17
     8fc:	0f 91       	pop	r16
     8fe:	ff 90       	pop	r15
     900:	ef 90       	pop	r14
     902:	df 90       	pop	r13
     904:	cf 90       	pop	r12
     906:	bf 90       	pop	r11
     908:	af 90       	pop	r10
     90a:	9f 90       	pop	r9
     90c:	8f 90       	pop	r8
     90e:	7f 90       	pop	r7
     910:	6f 90       	pop	r6
     912:	5f 90       	pop	r5
     914:	4f 90       	pop	r4
     916:	3f 90       	pop	r3
     918:	2f 90       	pop	r2
     91a:	08 95       	ret

0000091c <getFoundDeviceName>:
     91c:	cf 92       	push	r12
     91e:	df 92       	push	r13
     920:	ef 92       	push	r14
     922:	ff 92       	push	r15
     924:	0f 93       	push	r16
     926:	1f 93       	push	r17
     928:	cf 93       	push	r28
     92a:	df 93       	push	r29
     92c:	cd b7       	in	r28, 0x3d	; 61
     92e:	de b7       	in	r29, 0x3e	; 62
     930:	c2 55       	subi	r28, 0x52	; 82
     932:	d1 09       	sbc	r29, r1
     934:	0f b6       	in	r0, 0x3f	; 63
     936:	f8 94       	cli
     938:	de bf       	out	0x3e, r29	; 62
     93a:	0f be       	out	0x3f, r0	; 63
     93c:	cd bf       	out	0x3d, r28	; 61
     93e:	7c 01       	movw	r14, r24
     940:	88 e1       	ldi	r24, 0x18	; 24
     942:	90 e0       	ldi	r25, 0x00	; 0
     944:	0e 94 32 10 	call	0x2064	; 0x2064 <malloc>
     948:	8c 01       	movw	r16, r24
     94a:	8a e0       	ldi	r24, 0x0A	; 10
     94c:	ec e7       	ldi	r30, 0x7C	; 124
     94e:	f2 e0       	ldi	r31, 0x02	; 2
     950:	d8 01       	movw	r26, r16
     952:	01 90       	ld	r0, Z+
     954:	0d 92       	st	X+, r0
     956:	8a 95       	dec	r24
     958:	e1 f7       	brne	.-8      	; 0x952 <getFoundDeviceName+0x36>
     95a:	b7 01       	movw	r22, r14
     95c:	c8 01       	movw	r24, r16
     95e:	0e 94 6b 11 	call	0x22d6	; 0x22d6 <strcat>
     962:	2f ef       	ldi	r18, 0xFF	; 255
     964:	84 e3       	ldi	r24, 0x34	; 52
     966:	9c e0       	ldi	r25, 0x0C	; 12
     968:	21 50       	subi	r18, 0x01	; 1
     96a:	80 40       	sbci	r24, 0x00	; 0
     96c:	90 40       	sbci	r25, 0x00	; 0
     96e:	e1 f7       	brne	.-8      	; 0x968 <getFoundDeviceName+0x4c>
     970:	00 c0       	rjmp	.+0      	; 0x972 <getFoundDeviceName+0x56>
     972:	00 00       	nop
     974:	c8 01       	movw	r24, r16
     976:	d8 db       	rcall	.-2128   	; 0x128 <SendStringCRLF>
     978:	8e 01       	movw	r16, r28
     97a:	0d 5f       	subi	r16, 0xFD	; 253
     97c:	1f 4f       	sbci	r17, 0xFF	; 255
     97e:	7e 01       	movw	r14, r28
     980:	e3 e5       	ldi	r30, 0x53	; 83
     982:	ee 0e       	add	r14, r30
     984:	f1 1c       	adc	r15, r1
     986:	c1 2c       	mov	r12, r1
     988:	d1 2c       	mov	r13, r1
     98a:	0e 94 bc 0f 	call	0x1f78	; 0x1f78 <ReadChar>
     98e:	f8 01       	movw	r30, r16
     990:	81 93       	st	Z+, r24
     992:	8f 01       	movw	r16, r30
     994:	8d 30       	cpi	r24, 0x0D	; 13
     996:	39 f4       	brne	.+14     	; 0x9a6 <getFoundDeviceName+0x8a>
     998:	ff ef       	ldi	r31, 0xFF	; 255
     99a:	cf 1a       	sub	r12, r31
     99c:	df 0a       	sbc	r13, r31
     99e:	22 e0       	ldi	r18, 0x02	; 2
     9a0:	c2 16       	cp	r12, r18
     9a2:	d1 04       	cpc	r13, r1
     9a4:	19 f0       	breq	.+6      	; 0x9ac <getFoundDeviceName+0x90>
     9a6:	0e 15       	cp	r16, r14
     9a8:	1f 05       	cpc	r17, r15
     9aa:	79 f7       	brne	.-34     	; 0x98a <getFoundDeviceName+0x6e>
     9ac:	ae 01       	movw	r20, r28
     9ae:	4f 5f       	subi	r20, 0xFF	; 255
     9b0:	5f 4f       	sbci	r21, 0xFF	; 255
     9b2:	6d e0       	ldi	r22, 0x0D	; 13
     9b4:	73 e0       	ldi	r23, 0x03	; 3
     9b6:	ce 01       	movw	r24, r28
     9b8:	03 96       	adiw	r24, 0x03	; 3
     9ba:	0e 94 94 11 	call	0x2328	; 0x2328 <strtok_r>
     9be:	ae 01       	movw	r20, r28
     9c0:	4f 5f       	subi	r20, 0xFF	; 255
     9c2:	5f 4f       	sbci	r21, 0xFF	; 255
     9c4:	66 e8       	ldi	r22, 0x86	; 134
     9c6:	72 e0       	ldi	r23, 0x02	; 2
     9c8:	80 e0       	ldi	r24, 0x00	; 0
     9ca:	90 e0       	ldi	r25, 0x00	; 0
     9cc:	0e 94 94 11 	call	0x2328	; 0x2328 <strtok_r>
     9d0:	0e 94 53 11 	call	0x22a6	; 0x22a6 <strdup>
     9d4:	ce 5a       	subi	r28, 0xAE	; 174
     9d6:	df 4f       	sbci	r29, 0xFF	; 255
     9d8:	0f b6       	in	r0, 0x3f	; 63
     9da:	f8 94       	cli
     9dc:	de bf       	out	0x3e, r29	; 62
     9de:	0f be       	out	0x3f, r0	; 63
     9e0:	cd bf       	out	0x3d, r28	; 61
     9e2:	df 91       	pop	r29
     9e4:	cf 91       	pop	r28
     9e6:	1f 91       	pop	r17
     9e8:	0f 91       	pop	r16
     9ea:	ff 90       	pop	r15
     9ec:	ef 90       	pop	r14
     9ee:	df 90       	pop	r13
     9f0:	cf 90       	pop	r12
     9f2:	08 95       	ret

000009f4 <trustedDevicesScan>:
     9f4:	ef 92       	push	r14
     9f6:	ff 92       	push	r15
     9f8:	0f 93       	push	r16
     9fa:	1f 93       	push	r17
     9fc:	cf 93       	push	r28
     9fe:	df 93       	push	r29
     a00:	cd b7       	in	r28, 0x3d	; 61
     a02:	de b7       	in	r29, 0x3e	; 62
     a04:	cc 52       	subi	r28, 0x2C	; 44
     a06:	d1 40       	sbci	r29, 0x01	; 1
     a08:	0f b6       	in	r0, 0x3f	; 63
     a0a:	f8 94       	cli
     a0c:	de bf       	out	0x3e, r29	; 62
     a0e:	0f be       	out	0x3f, r0	; 63
     a10:	cd bf       	out	0x3d, r28	; 61
     a12:	10 92 bd 18 	sts	0x18BD, r1	; 0x8018bd <numberOfRegisteredAddresses+0x1>
     a16:	10 92 bc 18 	sts	0x18BC, r1	; 0x8018bc <numberOfRegisteredAddresses>
     a1a:	89 e4       	ldi	r24, 0x49	; 73
     a1c:	92 e0       	ldi	r25, 0x02	; 2
     a1e:	84 db       	rcall	.-2296   	; 0x128 <SendStringCRLF>
     a20:	8e 01       	movw	r16, r28
     a22:	01 50       	subi	r16, 0x01	; 1
     a24:	11 09       	sbc	r17, r1
     a26:	7e 01       	movw	r14, r28
     a28:	85 ed       	ldi	r24, 0xD5	; 213
     a2a:	e8 1a       	sub	r14, r24
     a2c:	8e ef       	ldi	r24, 0xFE	; 254
     a2e:	f8 0a       	sbc	r15, r24
     a30:	0e 94 bc 0f 	call	0x1f78	; 0x1f78 <ReadChar>
     a34:	f8 01       	movw	r30, r16
     a36:	82 83       	std	Z+2, r24	; 0x02
     a38:	90 81       	ld	r25, Z
     a3a:	0f 5f       	subi	r16, 0xFF	; 255
     a3c:	1f 4f       	sbci	r17, 0xFF	; 255
     a3e:	9f 34       	cpi	r25, 0x4F	; 79
     a40:	31 f4       	brne	.+12     	; 0xa4e <trustedDevicesScan+0x5a>
     a42:	d8 01       	movw	r26, r16
     a44:	9c 91       	ld	r25, X
     a46:	9b 34       	cpi	r25, 0x4B	; 75
     a48:	11 f4       	brne	.+4      	; 0xa4e <trustedDevicesScan+0x5a>
     a4a:	8d 30       	cpi	r24, 0x0D	; 13
     a4c:	19 f0       	breq	.+6      	; 0xa54 <trustedDevicesScan+0x60>
     a4e:	0e 15       	cp	r16, r14
     a50:	1f 05       	cpc	r17, r15
     a52:	71 f7       	brne	.-36     	; 0xa30 <trustedDevicesScan+0x3c>
     a54:	ce 01       	movw	r24, r28
     a56:	01 96       	adiw	r24, 0x01	; 1
     a58:	d3 dd       	rcall	.-1114   	; 0x600 <trustedAddressDelimeter>
     a5a:	00 91 aa 18 	lds	r16, 0x18AA	; 0x8018aa <trustedDevice1Address>
     a5e:	10 91 ab 18 	lds	r17, 0x18AB	; 0x8018ab <trustedDevice1Address+0x1>
     a62:	40 e0       	ldi	r20, 0x00	; 0
     a64:	51 e0       	ldi	r21, 0x01	; 1
     a66:	65 e4       	ldi	r22, 0x45	; 69
     a68:	72 e0       	ldi	r23, 0x02	; 2
     a6a:	c8 01       	movw	r24, r16
     a6c:	0e 94 86 11 	call	0x230c	; 0x230c <strncmp>
     a70:	89 2b       	or	r24, r25
     a72:	39 f0       	breq	.+14     	; 0xa82 <trustedDevicesScan+0x8e>
     a74:	c8 01       	movw	r24, r16
     a76:	52 df       	rcall	.-348    	; 0x91c <getFoundDeviceName>
     a78:	90 93 b7 18 	sts	0x18B7, r25	; 0x8018b7 <trustedDevice1Name+0x1>
     a7c:	80 93 b6 18 	sts	0x18B6, r24	; 0x8018b6 <trustedDevice1Name>
     a80:	06 c0       	rjmp	.+12     	; 0xa8e <trustedDevicesScan+0x9a>
     a82:	85 e4       	ldi	r24, 0x45	; 69
     a84:	92 e0       	ldi	r25, 0x02	; 2
     a86:	90 93 b7 18 	sts	0x18B7, r25	; 0x8018b7 <trustedDevice1Name+0x1>
     a8a:	80 93 b6 18 	sts	0x18B6, r24	; 0x8018b6 <trustedDevice1Name>
     a8e:	00 91 be 18 	lds	r16, 0x18BE	; 0x8018be <trustedDevice2Address>
     a92:	10 91 bf 18 	lds	r17, 0x18BF	; 0x8018bf <trustedDevice2Address+0x1>
     a96:	40 e0       	ldi	r20, 0x00	; 0
     a98:	51 e0       	ldi	r21, 0x01	; 1
     a9a:	65 e4       	ldi	r22, 0x45	; 69
     a9c:	72 e0       	ldi	r23, 0x02	; 2
     a9e:	c8 01       	movw	r24, r16
     aa0:	0e 94 86 11 	call	0x230c	; 0x230c <strncmp>
     aa4:	89 2b       	or	r24, r25
     aa6:	39 f0       	breq	.+14     	; 0xab6 <trustedDevicesScan+0xc2>
     aa8:	c8 01       	movw	r24, r16
     aaa:	38 df       	rcall	.-400    	; 0x91c <getFoundDeviceName>
     aac:	90 93 b5 18 	sts	0x18B5, r25	; 0x8018b5 <trustedDevice2Name+0x1>
     ab0:	80 93 b4 18 	sts	0x18B4, r24	; 0x8018b4 <trustedDevice2Name>
     ab4:	06 c0       	rjmp	.+12     	; 0xac2 <trustedDevicesScan+0xce>
     ab6:	85 e4       	ldi	r24, 0x45	; 69
     ab8:	92 e0       	ldi	r25, 0x02	; 2
     aba:	90 93 b5 18 	sts	0x18B5, r25	; 0x8018b5 <trustedDevice2Name+0x1>
     abe:	80 93 b4 18 	sts	0x18B4, r24	; 0x8018b4 <trustedDevice2Name>
     ac2:	00 91 ae 18 	lds	r16, 0x18AE	; 0x8018ae <trustedDevice3Address>
     ac6:	10 91 af 18 	lds	r17, 0x18AF	; 0x8018af <trustedDevice3Address+0x1>
     aca:	40 e0       	ldi	r20, 0x00	; 0
     acc:	51 e0       	ldi	r21, 0x01	; 1
     ace:	65 e4       	ldi	r22, 0x45	; 69
     ad0:	72 e0       	ldi	r23, 0x02	; 2
     ad2:	c8 01       	movw	r24, r16
     ad4:	0e 94 86 11 	call	0x230c	; 0x230c <strncmp>
     ad8:	89 2b       	or	r24, r25
     ada:	39 f0       	breq	.+14     	; 0xaea <trustedDevicesScan+0xf6>
     adc:	c8 01       	movw	r24, r16
     ade:	1e df       	rcall	.-452    	; 0x91c <getFoundDeviceName>
     ae0:	90 93 a5 18 	sts	0x18A5, r25	; 0x8018a5 <trustedDevice3Name+0x1>
     ae4:	80 93 a4 18 	sts	0x18A4, r24	; 0x8018a4 <trustedDevice3Name>
     ae8:	06 c0       	rjmp	.+12     	; 0xaf6 <trustedDevicesScan+0x102>
     aea:	85 e4       	ldi	r24, 0x45	; 69
     aec:	92 e0       	ldi	r25, 0x02	; 2
     aee:	90 93 a5 18 	sts	0x18A5, r25	; 0x8018a5 <trustedDevice3Name+0x1>
     af2:	80 93 a4 18 	sts	0x18A4, r24	; 0x8018a4 <trustedDevice3Name>
     af6:	00 91 a6 18 	lds	r16, 0x18A6	; 0x8018a6 <trustedDevice4Address>
     afa:	10 91 a7 18 	lds	r17, 0x18A7	; 0x8018a7 <trustedDevice4Address+0x1>
     afe:	40 e0       	ldi	r20, 0x00	; 0
     b00:	51 e0       	ldi	r21, 0x01	; 1
     b02:	65 e4       	ldi	r22, 0x45	; 69
     b04:	72 e0       	ldi	r23, 0x02	; 2
     b06:	c8 01       	movw	r24, r16
     b08:	0e 94 86 11 	call	0x230c	; 0x230c <strncmp>
     b0c:	89 2b       	or	r24, r25
     b0e:	39 f0       	breq	.+14     	; 0xb1e <trustedDevicesScan+0x12a>
     b10:	c8 01       	movw	r24, r16
     b12:	04 df       	rcall	.-504    	; 0x91c <getFoundDeviceName>
     b14:	90 93 b9 18 	sts	0x18B9, r25	; 0x8018b9 <trustedDevice4Name+0x1>
     b18:	80 93 b8 18 	sts	0x18B8, r24	; 0x8018b8 <trustedDevice4Name>
     b1c:	06 c0       	rjmp	.+12     	; 0xb2a <trustedDevicesScan+0x136>
     b1e:	85 e4       	ldi	r24, 0x45	; 69
     b20:	92 e0       	ldi	r25, 0x02	; 2
     b22:	90 93 b9 18 	sts	0x18B9, r25	; 0x8018b9 <trustedDevice4Name+0x1>
     b26:	80 93 b8 18 	sts	0x18B8, r24	; 0x8018b8 <trustedDevice4Name>
     b2a:	87 e8       	ldi	r24, 0x87	; 135
     b2c:	92 e0       	ldi	r25, 0x02	; 2
     b2e:	fc da       	rcall	.-2568   	; 0x128 <SendStringCRLF>
     b30:	80 e5       	ldi	r24, 0x50	; 80
     b32:	92 e0       	ldi	r25, 0x02	; 2
     b34:	0e 94 cc 0f 	call	0x1f98	; 0x1f98 <SendString>
     b38:	80 91 b6 18 	lds	r24, 0x18B6	; 0x8018b6 <trustedDevice1Name>
     b3c:	90 91 b7 18 	lds	r25, 0x18B7	; 0x8018b7 <trustedDevice1Name+0x1>
     b40:	f3 da       	rcall	.-2586   	; 0x128 <SendStringCRLF>
     b42:	8b e5       	ldi	r24, 0x5B	; 91
     b44:	92 e0       	ldi	r25, 0x02	; 2
     b46:	0e 94 cc 0f 	call	0x1f98	; 0x1f98 <SendString>
     b4a:	80 91 b4 18 	lds	r24, 0x18B4	; 0x8018b4 <trustedDevice2Name>
     b4e:	90 91 b5 18 	lds	r25, 0x18B5	; 0x8018b5 <trustedDevice2Name+0x1>
     b52:	ea da       	rcall	.-2604   	; 0x128 <SendStringCRLF>
     b54:	86 e6       	ldi	r24, 0x66	; 102
     b56:	92 e0       	ldi	r25, 0x02	; 2
     b58:	0e 94 cc 0f 	call	0x1f98	; 0x1f98 <SendString>
     b5c:	80 91 a4 18 	lds	r24, 0x18A4	; 0x8018a4 <trustedDevice3Name>
     b60:	90 91 a5 18 	lds	r25, 0x18A5	; 0x8018a5 <trustedDevice3Name+0x1>
     b64:	e1 da       	rcall	.-2622   	; 0x128 <SendStringCRLF>
     b66:	81 e7       	ldi	r24, 0x71	; 113
     b68:	92 e0       	ldi	r25, 0x02	; 2
     b6a:	0e 94 cc 0f 	call	0x1f98	; 0x1f98 <SendString>
     b6e:	80 91 b8 18 	lds	r24, 0x18B8	; 0x8018b8 <trustedDevice4Name>
     b72:	90 91 b9 18 	lds	r25, 0x18B9	; 0x8018b9 <trustedDevice4Name+0x1>
     b76:	d8 da       	rcall	.-2640   	; 0x128 <SendStringCRLF>
     b78:	c4 5d       	subi	r28, 0xD4	; 212
     b7a:	de 4f       	sbci	r29, 0xFE	; 254
     b7c:	0f b6       	in	r0, 0x3f	; 63
     b7e:	f8 94       	cli
     b80:	de bf       	out	0x3e, r29	; 62
     b82:	0f be       	out	0x3f, r0	; 63
     b84:	cd bf       	out	0x3d, r28	; 61
     b86:	df 91       	pop	r29
     b88:	cf 91       	pop	r28
     b8a:	1f 91       	pop	r17
     b8c:	0f 91       	pop	r16
     b8e:	ff 90       	pop	r15
     b90:	ef 90       	pop	r14
     b92:	08 95       	ret

00000b94 <getTrustedDeviceName>:
     b94:	82 30       	cpi	r24, 0x02	; 2
     b96:	91 05       	cpc	r25, r1
     b98:	79 f0       	breq	.+30     	; 0xbb8 <getTrustedDeviceName+0x24>
     b9a:	1c f4       	brge	.+6      	; 0xba2 <getTrustedDeviceName+0xe>
     b9c:	01 97       	sbiw	r24, 0x01	; 1
     b9e:	39 f0       	breq	.+14     	; 0xbae <getTrustedDeviceName+0x1a>
     ba0:	1a c0       	rjmp	.+52     	; 0xbd6 <getTrustedDeviceName+0x42>
     ba2:	83 30       	cpi	r24, 0x03	; 3
     ba4:	91 05       	cpc	r25, r1
     ba6:	69 f0       	breq	.+26     	; 0xbc2 <getTrustedDeviceName+0x2e>
     ba8:	04 97       	sbiw	r24, 0x04	; 4
     baa:	81 f0       	breq	.+32     	; 0xbcc <getTrustedDeviceName+0x38>
     bac:	14 c0       	rjmp	.+40     	; 0xbd6 <getTrustedDeviceName+0x42>
     bae:	80 91 b6 18 	lds	r24, 0x18B6	; 0x8018b6 <trustedDevice1Name>
     bb2:	90 91 b7 18 	lds	r25, 0x18B7	; 0x8018b7 <trustedDevice1Name+0x1>
     bb6:	08 95       	ret
     bb8:	80 91 b4 18 	lds	r24, 0x18B4	; 0x8018b4 <trustedDevice2Name>
     bbc:	90 91 b5 18 	lds	r25, 0x18B5	; 0x8018b5 <trustedDevice2Name+0x1>
     bc0:	08 95       	ret
     bc2:	80 91 a4 18 	lds	r24, 0x18A4	; 0x8018a4 <trustedDevice3Name>
     bc6:	90 91 a5 18 	lds	r25, 0x18A5	; 0x8018a5 <trustedDevice3Name+0x1>
     bca:	08 95       	ret
     bcc:	80 91 b8 18 	lds	r24, 0x18B8	; 0x8018b8 <trustedDevice4Name>
     bd0:	90 91 b9 18 	lds	r25, 0x18B9	; 0x8018b9 <trustedDevice4Name+0x1>
     bd4:	08 95       	ret
     bd6:	88 e8       	ldi	r24, 0x88	; 136
     bd8:	92 e0       	ldi	r25, 0x02	; 2
     bda:	08 95       	ret

00000bdc <getTrustedDeviceAddress>:
     bdc:	82 30       	cpi	r24, 0x02	; 2
     bde:	91 05       	cpc	r25, r1
     be0:	79 f0       	breq	.+30     	; 0xc00 <getTrustedDeviceAddress+0x24>
     be2:	1c f4       	brge	.+6      	; 0xbea <getTrustedDeviceAddress+0xe>
     be4:	01 97       	sbiw	r24, 0x01	; 1
     be6:	39 f0       	breq	.+14     	; 0xbf6 <getTrustedDeviceAddress+0x1a>
     be8:	1a c0       	rjmp	.+52     	; 0xc1e <getTrustedDeviceAddress+0x42>
     bea:	83 30       	cpi	r24, 0x03	; 3
     bec:	91 05       	cpc	r25, r1
     bee:	69 f0       	breq	.+26     	; 0xc0a <getTrustedDeviceAddress+0x2e>
     bf0:	04 97       	sbiw	r24, 0x04	; 4
     bf2:	81 f0       	breq	.+32     	; 0xc14 <getTrustedDeviceAddress+0x38>
     bf4:	14 c0       	rjmp	.+40     	; 0xc1e <getTrustedDeviceAddress+0x42>
     bf6:	80 91 aa 18 	lds	r24, 0x18AA	; 0x8018aa <trustedDevice1Address>
     bfa:	90 91 ab 18 	lds	r25, 0x18AB	; 0x8018ab <trustedDevice1Address+0x1>
     bfe:	08 95       	ret
     c00:	80 91 be 18 	lds	r24, 0x18BE	; 0x8018be <trustedDevice2Address>
     c04:	90 91 bf 18 	lds	r25, 0x18BF	; 0x8018bf <trustedDevice2Address+0x1>
     c08:	08 95       	ret
     c0a:	80 91 ae 18 	lds	r24, 0x18AE	; 0x8018ae <trustedDevice3Address>
     c0e:	90 91 af 18 	lds	r25, 0x18AF	; 0x8018af <trustedDevice3Address+0x1>
     c12:	08 95       	ret
     c14:	80 91 a6 18 	lds	r24, 0x18A6	; 0x8018a6 <trustedDevice4Address>
     c18:	90 91 a7 18 	lds	r25, 0x18A7	; 0x8018a7 <trustedDevice4Address+0x1>
     c1c:	08 95       	ret
     c1e:	88 e8       	ldi	r24, 0x88	; 136
     c20:	92 e0       	ldi	r25, 0x02	; 2
     c22:	08 95       	ret

00000c24 <getNearbyDeviceAddress>:
     c24:	82 30       	cpi	r24, 0x02	; 2
     c26:	91 05       	cpc	r25, r1
     c28:	79 f0       	breq	.+30     	; 0xc48 <getNearbyDeviceAddress+0x24>
     c2a:	1c f4       	brge	.+6      	; 0xc32 <getNearbyDeviceAddress+0xe>
     c2c:	01 97       	sbiw	r24, 0x01	; 1
     c2e:	39 f0       	breq	.+14     	; 0xc3e <getNearbyDeviceAddress+0x1a>
     c30:	1a c0       	rjmp	.+52     	; 0xc66 <getNearbyDeviceAddress+0x42>
     c32:	83 30       	cpi	r24, 0x03	; 3
     c34:	91 05       	cpc	r25, r1
     c36:	69 f0       	breq	.+26     	; 0xc52 <getNearbyDeviceAddress+0x2e>
     c38:	04 97       	sbiw	r24, 0x04	; 4
     c3a:	81 f0       	breq	.+32     	; 0xc5c <getNearbyDeviceAddress+0x38>
     c3c:	14 c0       	rjmp	.+40     	; 0xc66 <getNearbyDeviceAddress+0x42>
     c3e:	80 91 a8 18 	lds	r24, 0x18A8	; 0x8018a8 <nearbyDevice1Address>
     c42:	90 91 a9 18 	lds	r25, 0x18A9	; 0x8018a9 <nearbyDevice1Address+0x1>
     c46:	08 95       	ret
     c48:	80 91 b2 18 	lds	r24, 0x18B2	; 0x8018b2 <nearbyDevice2Address>
     c4c:	90 91 b3 18 	lds	r25, 0x18B3	; 0x8018b3 <nearbyDevice2Address+0x1>
     c50:	08 95       	ret
     c52:	80 91 b0 18 	lds	r24, 0x18B0	; 0x8018b0 <nearbyDevice3Address>
     c56:	90 91 b1 18 	lds	r25, 0x18B1	; 0x8018b1 <nearbyDevice3Address+0x1>
     c5a:	08 95       	ret
     c5c:	80 91 ba 18 	lds	r24, 0x18BA	; 0x8018ba <nearbyDevice4Address>
     c60:	90 91 bb 18 	lds	r25, 0x18BB	; 0x8018bb <nearbyDevice4Address+0x1>
     c64:	08 95       	ret
     c66:	88 e8       	ldi	r24, 0x88	; 136
     c68:	92 e0       	ldi	r25, 0x02	; 2
     c6a:	08 95       	ret

00000c6c <__vector_17>:
    // Now enable global interrupts
    sei();
}

ISR (TIMER1_COMPA_vect)
{
     c6c:	1f 92       	push	r1
     c6e:	0f 92       	push	r0
     c70:	0f b6       	in	r0, 0x3f	; 63
     c72:	0f 92       	push	r0
     c74:	11 24       	eor	r1, r1
     c76:	8f 93       	push	r24
     c78:	9f 93       	push	r25
     c7a:	af 93       	push	r26
     c7c:	bf 93       	push	r27
	timer1_millis++;
     c7e:	80 91 c0 18 	lds	r24, 0x18C0	; 0x8018c0 <timer1_millis>
     c82:	90 91 c1 18 	lds	r25, 0x18C1	; 0x8018c1 <timer1_millis+0x1>
     c86:	a0 91 c2 18 	lds	r26, 0x18C2	; 0x8018c2 <timer1_millis+0x2>
     c8a:	b0 91 c3 18 	lds	r27, 0x18C3	; 0x8018c3 <timer1_millis+0x3>
     c8e:	01 96       	adiw	r24, 0x01	; 1
     c90:	a1 1d       	adc	r26, r1
     c92:	b1 1d       	adc	r27, r1
     c94:	80 93 c0 18 	sts	0x18C0, r24	; 0x8018c0 <timer1_millis>
     c98:	90 93 c1 18 	sts	0x18C1, r25	; 0x8018c1 <timer1_millis+0x1>
     c9c:	a0 93 c2 18 	sts	0x18C2, r26	; 0x8018c2 <timer1_millis+0x2>
     ca0:	b0 93 c3 18 	sts	0x18C3, r27	; 0x8018c3 <timer1_millis+0x3>
}
     ca4:	bf 91       	pop	r27
     ca6:	af 91       	pop	r26
     ca8:	9f 91       	pop	r25
     caa:	8f 91       	pop	r24
     cac:	0f 90       	pop	r0
     cae:	0f be       	out	0x3f, r0	; 63
     cb0:	0f 90       	pop	r0
     cb2:	1f 90       	pop	r1
     cb4:	18 95       	reti

00000cb6 <movePointerUp>:
				break;
		}
		return state;
}
int movePointerUp()
{
     cb6:	ef 92       	push	r14
     cb8:	0f 93       	push	r16
     cba:	cf 93       	push	r28
	if (pointer_position_y > 0)
     cbc:	80 91 92 18 	lds	r24, 0x1892	; 0x801892 <pointer_position_y>
     cc0:	90 91 93 18 	lds	r25, 0x1893	; 0x801893 <pointer_position_y+0x1>
     cc4:	18 16       	cp	r1, r24
     cc6:	19 06       	cpc	r1, r25
     cc8:	0c f0       	brlt	.+2      	; 0xccc <movePointerUp+0x16>
     cca:	3e c0       	rjmp	.+124    	; 0xd48 <movePointerUp+0x92>
	{
		drawletters(">", start_position_x-20,start_position_y+(pointer_position_y*30),31,63,31);
     ccc:	ce e1       	ldi	r28, 0x1E	; 30
     cce:	c8 9f       	mul	r28, r24
     cd0:	a0 01       	movw	r20, r0
     cd2:	c9 9f       	mul	r28, r25
     cd4:	50 0d       	add	r21, r0
     cd6:	11 24       	eor	r1, r1
     cd8:	80 91 08 02 	lds	r24, 0x0208	; 0x800208 <start_position_y>
     cdc:	90 91 09 02 	lds	r25, 0x0209	; 0x800209 <start_position_y+0x1>
     ce0:	48 0f       	add	r20, r24
     ce2:	59 1f       	adc	r21, r25
     ce4:	60 91 0a 02 	lds	r22, 0x020A	; 0x80020a <start_position_x>
     ce8:	70 91 0b 02 	lds	r23, 0x020B	; 0x80020b <start_position_x+0x1>
     cec:	64 51       	subi	r22, 0x14	; 20
     cee:	71 09       	sbc	r23, r1
     cf0:	0f 2e       	mov	r0, r31
     cf2:	ff e1       	ldi	r31, 0x1F	; 31
     cf4:	ef 2e       	mov	r14, r31
     cf6:	f0 2d       	mov	r31, r0
     cf8:	0f e3       	ldi	r16, 0x3F	; 63
     cfa:	2f e1       	ldi	r18, 0x1F	; 31
     cfc:	83 e9       	ldi	r24, 0x93	; 147
     cfe:	92 e0       	ldi	r25, 0x02	; 2
     d00:	35 d7       	rcall	.+3690   	; 0x1b6c <drawletters>
		pointer_position_y--;
     d02:	80 91 92 18 	lds	r24, 0x1892	; 0x801892 <pointer_position_y>
     d06:	90 91 93 18 	lds	r25, 0x1893	; 0x801893 <pointer_position_y+0x1>
     d0a:	01 97       	sbiw	r24, 0x01	; 1
     d0c:	90 93 93 18 	sts	0x1893, r25	; 0x801893 <pointer_position_y+0x1>
     d10:	80 93 92 18 	sts	0x1892, r24	; 0x801892 <pointer_position_y>
		drawletters(">", start_position_x-20,start_position_y+(pointer_position_y*30),0,0,0);
     d14:	c8 9f       	mul	r28, r24
     d16:	a0 01       	movw	r20, r0
     d18:	c9 9f       	mul	r28, r25
     d1a:	50 0d       	add	r21, r0
     d1c:	11 24       	eor	r1, r1
     d1e:	80 91 08 02 	lds	r24, 0x0208	; 0x800208 <start_position_y>
     d22:	90 91 09 02 	lds	r25, 0x0209	; 0x800209 <start_position_y+0x1>
     d26:	48 0f       	add	r20, r24
     d28:	59 1f       	adc	r21, r25
     d2a:	60 91 0a 02 	lds	r22, 0x020A	; 0x80020a <start_position_x>
     d2e:	70 91 0b 02 	lds	r23, 0x020B	; 0x80020b <start_position_x+0x1>
     d32:	64 51       	subi	r22, 0x14	; 20
     d34:	71 09       	sbc	r23, r1
     d36:	e1 2c       	mov	r14, r1
     d38:	00 e0       	ldi	r16, 0x00	; 0
     d3a:	20 e0       	ldi	r18, 0x00	; 0
     d3c:	83 e9       	ldi	r24, 0x93	; 147
     d3e:	92 e0       	ldi	r25, 0x02	; 2
     d40:	15 d7       	rcall	.+3626   	; 0x1b6c <drawletters>
		return 1;
     d42:	81 e0       	ldi	r24, 0x01	; 1
     d44:	90 e0       	ldi	r25, 0x00	; 0
     d46:	02 c0       	rjmp	.+4      	; 0xd4c <movePointerUp+0x96>
	}
	else
	{return 0;}
     d48:	80 e0       	ldi	r24, 0x00	; 0
     d4a:	90 e0       	ldi	r25, 0x00	; 0
}
     d4c:	cf 91       	pop	r28
     d4e:	0f 91       	pop	r16
     d50:	ef 90       	pop	r14
     d52:	08 95       	ret

00000d54 <movePointerDown>:
int movePointerDown()
{
     d54:	ef 92       	push	r14
     d56:	0f 93       	push	r16
     d58:	cf 93       	push	r28
	if (pointer_position_y < pointer_max-1)
     d5a:	20 91 92 18 	lds	r18, 0x1892	; 0x801892 <pointer_position_y>
     d5e:	30 91 93 18 	lds	r19, 0x1893	; 0x801893 <pointer_position_y+0x1>
     d62:	80 91 90 18 	lds	r24, 0x1890	; 0x801890 <pointer_max>
     d66:	90 91 91 18 	lds	r25, 0x1891	; 0x801891 <pointer_max+0x1>
     d6a:	01 97       	sbiw	r24, 0x01	; 1
     d6c:	28 17       	cp	r18, r24
     d6e:	39 07       	cpc	r19, r25
     d70:	0c f0       	brlt	.+2      	; 0xd74 <movePointerDown+0x20>
     d72:	3e c0       	rjmp	.+124    	; 0xdf0 <movePointerDown+0x9c>
	{
		
		drawletters(">", start_position_x-20,start_position_y+(pointer_position_y*30),31,63,31);
     d74:	ce e1       	ldi	r28, 0x1E	; 30
     d76:	c2 9f       	mul	r28, r18
     d78:	a0 01       	movw	r20, r0
     d7a:	c3 9f       	mul	r28, r19
     d7c:	50 0d       	add	r21, r0
     d7e:	11 24       	eor	r1, r1
     d80:	80 91 08 02 	lds	r24, 0x0208	; 0x800208 <start_position_y>
     d84:	90 91 09 02 	lds	r25, 0x0209	; 0x800209 <start_position_y+0x1>
     d88:	48 0f       	add	r20, r24
     d8a:	59 1f       	adc	r21, r25
     d8c:	60 91 0a 02 	lds	r22, 0x020A	; 0x80020a <start_position_x>
     d90:	70 91 0b 02 	lds	r23, 0x020B	; 0x80020b <start_position_x+0x1>
     d94:	64 51       	subi	r22, 0x14	; 20
     d96:	71 09       	sbc	r23, r1
     d98:	0f 2e       	mov	r0, r31
     d9a:	ff e1       	ldi	r31, 0x1F	; 31
     d9c:	ef 2e       	mov	r14, r31
     d9e:	f0 2d       	mov	r31, r0
     da0:	0f e3       	ldi	r16, 0x3F	; 63
     da2:	2f e1       	ldi	r18, 0x1F	; 31
     da4:	83 e9       	ldi	r24, 0x93	; 147
     da6:	92 e0       	ldi	r25, 0x02	; 2
     da8:	e1 d6       	rcall	.+3522   	; 0x1b6c <drawletters>
		pointer_position_y++;
     daa:	80 91 92 18 	lds	r24, 0x1892	; 0x801892 <pointer_position_y>
     dae:	90 91 93 18 	lds	r25, 0x1893	; 0x801893 <pointer_position_y+0x1>
     db2:	01 96       	adiw	r24, 0x01	; 1
     db4:	90 93 93 18 	sts	0x1893, r25	; 0x801893 <pointer_position_y+0x1>
     db8:	80 93 92 18 	sts	0x1892, r24	; 0x801892 <pointer_position_y>
		drawletters(">", start_position_x-20,start_position_y+(pointer_position_y*30),0,0,0);
     dbc:	c8 9f       	mul	r28, r24
     dbe:	a0 01       	movw	r20, r0
     dc0:	c9 9f       	mul	r28, r25
     dc2:	50 0d       	add	r21, r0
     dc4:	11 24       	eor	r1, r1
     dc6:	80 91 08 02 	lds	r24, 0x0208	; 0x800208 <start_position_y>
     dca:	90 91 09 02 	lds	r25, 0x0209	; 0x800209 <start_position_y+0x1>
     dce:	48 0f       	add	r20, r24
     dd0:	59 1f       	adc	r21, r25
     dd2:	60 91 0a 02 	lds	r22, 0x020A	; 0x80020a <start_position_x>
     dd6:	70 91 0b 02 	lds	r23, 0x020B	; 0x80020b <start_position_x+0x1>
     dda:	64 51       	subi	r22, 0x14	; 20
     ddc:	71 09       	sbc	r23, r1
     dde:	e1 2c       	mov	r14, r1
     de0:	00 e0       	ldi	r16, 0x00	; 0
     de2:	20 e0       	ldi	r18, 0x00	; 0
     de4:	83 e9       	ldi	r24, 0x93	; 147
     de6:	92 e0       	ldi	r25, 0x02	; 2
     de8:	c1 d6       	rcall	.+3458   	; 0x1b6c <drawletters>
		return 1;
     dea:	81 e0       	ldi	r24, 0x01	; 1
     dec:	90 e0       	ldi	r25, 0x00	; 0
     dee:	02 c0       	rjmp	.+4      	; 0xdf4 <movePointerDown+0xa0>
	}
	else
	{return 0;}
     df0:	80 e0       	ldi	r24, 0x00	; 0
     df2:	90 e0       	ldi	r25, 0x00	; 0
	
}
     df4:	cf 91       	pop	r28
     df6:	0f 91       	pop	r16
     df8:	ef 90       	pop	r14
     dfa:	08 95       	ret

00000dfc <addPointer>:

// LOCAL FUNCTIONS /

void addPointer()
{
     dfc:	ef 92       	push	r14
     dfe:	0f 93       	push	r16
		drawletters(">", start_position_x-20,start_position_y,0,0,0);
     e00:	40 91 08 02 	lds	r20, 0x0208	; 0x800208 <start_position_y>
     e04:	50 91 09 02 	lds	r21, 0x0209	; 0x800209 <start_position_y+0x1>
     e08:	60 91 0a 02 	lds	r22, 0x020A	; 0x80020a <start_position_x>
     e0c:	70 91 0b 02 	lds	r23, 0x020B	; 0x80020b <start_position_x+0x1>
     e10:	64 51       	subi	r22, 0x14	; 20
     e12:	71 09       	sbc	r23, r1
     e14:	e1 2c       	mov	r14, r1
     e16:	00 e0       	ldi	r16, 0x00	; 0
     e18:	20 e0       	ldi	r18, 0x00	; 0
     e1a:	83 e9       	ldi	r24, 0x93	; 147
     e1c:	92 e0       	ldi	r25, 0x02	; 2
     e1e:	a6 d6       	rcall	.+3404   	; 0x1b6c <drawletters>
}
     e20:	0f 91       	pop	r16
     e22:	ef 90       	pop	r14
     e24:	08 95       	ret

00000e26 <lock>:
void lock()
{
     e26:	cf 92       	push	r12
     e28:	ef 92       	push	r14
     e2a:	0f 93       	push	r16
	
	if (locked == 1)
     e2c:	80 91 06 02 	lds	r24, 0x0206	; 0x800206 <locked>
     e30:	90 91 07 02 	lds	r25, 0x0207	; 0x800207 <locked+0x1>
     e34:	81 30       	cpi	r24, 0x01	; 1
     e36:	91 05       	cpc	r25, r1
     e38:	81 f4       	brne	.+32     	; 0xe5a <lock+0x34>
	{
		FillRectangle(261,0,60,60,0,63,0);
     e3a:	c1 2c       	mov	r12, r1
     e3c:	0f 2e       	mov	r0, r31
     e3e:	ff e3       	ldi	r31, 0x3F	; 63
     e40:	ef 2e       	mov	r14, r31
     e42:	f0 2d       	mov	r31, r0
     e44:	00 e0       	ldi	r16, 0x00	; 0
     e46:	2c e3       	ldi	r18, 0x3C	; 60
     e48:	30 e0       	ldi	r19, 0x00	; 0
     e4a:	4c e3       	ldi	r20, 0x3C	; 60
     e4c:	50 e0       	ldi	r21, 0x00	; 0
     e4e:	60 e0       	ldi	r22, 0x00	; 0
     e50:	70 e0       	ldi	r23, 0x00	; 0
     e52:	85 e0       	ldi	r24, 0x05	; 5
     e54:	91 e0       	ldi	r25, 0x01	; 1
     e56:	c1 d4       	rcall	.+2434   	; 0x17da <FillRectangle>
     e58:	0e c0       	rjmp	.+28     	; 0xe76 <lock+0x50>
	}
	else if (locked == 0)
     e5a:	89 2b       	or	r24, r25
     e5c:	61 f4       	brne	.+24     	; 0xe76 <lock+0x50>
	{
		FillRectangle(261,0,60,60,31,0,0);
     e5e:	c1 2c       	mov	r12, r1
     e60:	e1 2c       	mov	r14, r1
     e62:	0f e1       	ldi	r16, 0x1F	; 31
     e64:	2c e3       	ldi	r18, 0x3C	; 60
     e66:	30 e0       	ldi	r19, 0x00	; 0
     e68:	4c e3       	ldi	r20, 0x3C	; 60
     e6a:	50 e0       	ldi	r21, 0x00	; 0
     e6c:	60 e0       	ldi	r22, 0x00	; 0
     e6e:	70 e0       	ldi	r23, 0x00	; 0
     e70:	85 e0       	ldi	r24, 0x05	; 5
     e72:	91 e0       	ldi	r25, 0x01	; 1
     e74:	b2 d4       	rcall	.+2404   	; 0x17da <FillRectangle>
	}
}
     e76:	0f 91       	pop	r16
     e78:	ef 90       	pop	r14
     e7a:	cf 90       	pop	r12
     e7c:	08 95       	ret

00000e7e <toggleLock>:
void toggleLock()
{
	locked++;
     e7e:	80 91 06 02 	lds	r24, 0x0206	; 0x800206 <locked>
     e82:	90 91 07 02 	lds	r25, 0x0207	; 0x800207 <locked+0x1>
     e86:	01 96       	adiw	r24, 0x01	; 1
	if (locked == 3)
     e88:	83 30       	cpi	r24, 0x03	; 3
     e8a:	91 05       	cpc	r25, r1
     e8c:	29 f0       	breq	.+10     	; 0xe98 <toggleLock+0x1a>
		FillRectangle(261,0,60,60,31,0,0);
	}
}
void toggleLock()
{
	locked++;
     e8e:	90 93 07 02 	sts	0x0207, r25	; 0x800207 <locked+0x1>
     e92:	80 93 06 02 	sts	0x0206, r24	; 0x800206 <locked>
     e96:	04 c0       	rjmp	.+8      	; 0xea0 <toggleLock+0x22>
	if (locked == 3)
	{locked = 0;}
     e98:	10 92 07 02 	sts	0x0207, r1	; 0x800207 <locked+0x1>
     e9c:	10 92 06 02 	sts	0x0206, r1	; 0x800206 <locked>
	lock();
     ea0:	c2 cf       	rjmp	.-124    	; 0xe26 <lock>
     ea2:	08 95       	ret

00000ea4 <TouchDraw>:
		{return 0;}	
	}

}
void TouchDraw()
{
     ea4:	ef 92       	push	r14
     ea6:	0f 93       	push	r16
	setBaggroundPixel(0,0,0);
     ea8:	40 e0       	ldi	r20, 0x00	; 0
     eaa:	50 e0       	ldi	r21, 0x00	; 0
     eac:	60 e0       	ldi	r22, 0x00	; 0
     eae:	70 e0       	ldi	r23, 0x00	; 0
     eb0:	80 e0       	ldi	r24, 0x00	; 0
     eb2:	90 e0       	ldi	r25, 0x00	; 0
     eb4:	d0 d4       	rcall	.+2464   	; 0x1856 <setBaggroundPixel>
	drawletters("Enter", 15 ,200,31,63,31);
     eb6:	0f 2e       	mov	r0, r31
     eb8:	ff e1       	ldi	r31, 0x1F	; 31
     eba:	ef 2e       	mov	r14, r31
     ebc:	f0 2d       	mov	r31, r0
     ebe:	0f e3       	ldi	r16, 0x3F	; 63
     ec0:	2f e1       	ldi	r18, 0x1F	; 31
     ec2:	48 ec       	ldi	r20, 0xC8	; 200
     ec4:	50 e0       	ldi	r21, 0x00	; 0
     ec6:	6f e0       	ldi	r22, 0x0F	; 15
     ec8:	70 e0       	ldi	r23, 0x00	; 0
     eca:	85 e9       	ldi	r24, 0x95	; 149
     ecc:	92 e0       	ldi	r25, 0x02	; 2
     ece:	4e d6       	rcall	.+3228   	; 0x1b6c <drawletters>
	drawletters("Back", 90,200,31,63,31);
     ed0:	2f e1       	ldi	r18, 0x1F	; 31
     ed2:	48 ec       	ldi	r20, 0xC8	; 200
     ed4:	50 e0       	ldi	r21, 0x00	; 0
     ed6:	6a e5       	ldi	r22, 0x5A	; 90
     ed8:	70 e0       	ldi	r23, 0x00	; 0
     eda:	8b e9       	ldi	r24, 0x9B	; 155
     edc:	92 e0       	ldi	r25, 0x02	; 2
     ede:	46 d6       	rcall	.+3212   	; 0x1b6c <drawletters>
	drawletters("Up",185,200,31,63,31);
     ee0:	2f e1       	ldi	r18, 0x1F	; 31
     ee2:	48 ec       	ldi	r20, 0xC8	; 200
     ee4:	50 e0       	ldi	r21, 0x00	; 0
     ee6:	69 eb       	ldi	r22, 0xB9	; 185
     ee8:	70 e0       	ldi	r23, 0x00	; 0
     eea:	80 ea       	ldi	r24, 0xA0	; 160
     eec:	92 e0       	ldi	r25, 0x02	; 2
     eee:	3e d6       	rcall	.+3196   	; 0x1b6c <drawletters>
	drawletters("Down", 230,200,31,63,31);
     ef0:	2f e1       	ldi	r18, 0x1F	; 31
     ef2:	48 ec       	ldi	r20, 0xC8	; 200
     ef4:	50 e0       	ldi	r21, 0x00	; 0
     ef6:	66 ee       	ldi	r22, 0xE6	; 230
     ef8:	70 e0       	ldi	r23, 0x00	; 0
     efa:	83 ea       	ldi	r24, 0xA3	; 163
     efc:	92 e0       	ldi	r25, 0x02	; 2
     efe:	36 d6       	rcall	.+3180   	; 0x1b6c <drawletters>
	setBaggroundPixel(31,63,31);
     f00:	4f e1       	ldi	r20, 0x1F	; 31
     f02:	50 e0       	ldi	r21, 0x00	; 0
     f04:	6f e3       	ldi	r22, 0x3F	; 63
     f06:	70 e0       	ldi	r23, 0x00	; 0
     f08:	8f e1       	ldi	r24, 0x1F	; 31
     f0a:	90 e0       	ldi	r25, 0x00	; 0
     f0c:	a4 d4       	rcall	.+2376   	; 0x1856 <setBaggroundPixel>
}
     f0e:	0f 91       	pop	r16
     f10:	ef 90       	pop	r14
     f12:	08 95       	ret

00000f14 <cleanDisplay>:
void cleanDisplay()
{
     f14:	cf 92       	push	r12
     f16:	ef 92       	push	r14
     f18:	0f 93       	push	r16
	FillRectangle(0,0,320,240,31,63,31);
     f1a:	0f 2e       	mov	r0, r31
     f1c:	ff e1       	ldi	r31, 0x1F	; 31
     f1e:	cf 2e       	mov	r12, r31
     f20:	f0 2d       	mov	r31, r0
     f22:	0f 2e       	mov	r0, r31
     f24:	ff e3       	ldi	r31, 0x3F	; 63
     f26:	ef 2e       	mov	r14, r31
     f28:	f0 2d       	mov	r31, r0
     f2a:	0f e1       	ldi	r16, 0x1F	; 31
     f2c:	20 ef       	ldi	r18, 0xF0	; 240
     f2e:	30 e0       	ldi	r19, 0x00	; 0
     f30:	40 e4       	ldi	r20, 0x40	; 64
     f32:	51 e0       	ldi	r21, 0x01	; 1
     f34:	60 e0       	ldi	r22, 0x00	; 0
     f36:	70 e0       	ldi	r23, 0x00	; 0
     f38:	80 e0       	ldi	r24, 0x00	; 0
     f3a:	90 e0       	ldi	r25, 0x00	; 0
     f3c:	4e d4       	rcall	.+2204   	; 0x17da <FillRectangle>
}
     f3e:	0f 91       	pop	r16
     f40:	ef 90       	pop	r14
     f42:	cf 90       	pop	r12
     f44:	08 95       	ret

00000f46 <pickDevices>:
	
}


int pickDevices(int num, int _state)
{
     f46:	af 92       	push	r10
     f48:	bf 92       	push	r11
     f4a:	cf 92       	push	r12
     f4c:	df 92       	push	r13
     f4e:	ef 92       	push	r14
     f50:	ff 92       	push	r15
     f52:	0f 93       	push	r16
     f54:	1f 93       	push	r17
     f56:	cf 93       	push	r28
     f58:	df 93       	push	r29
     f5a:	5c 01       	movw	r10, r24
	num--;
     f5c:	6c 01       	movw	r12, r24
     f5e:	81 e0       	ldi	r24, 0x01	; 1
     f60:	c8 1a       	sub	r12, r24
     f62:	d1 08       	sbc	r13, r1
	if (_state == 1)
     f64:	61 30       	cpi	r22, 0x01	; 1
     f66:	71 05       	cpc	r23, r1
     f68:	09 f0       	breq	.+2      	; 0xf6c <pickDevices+0x26>
     f6a:	3e c0       	rjmp	.+124    	; 0xfe8 <pickDevices+0xa2>
	{
		strcpy(save_name[devices], get_name[num]);
     f6c:	c0 91 8e 18 	lds	r28, 0x188E	; 0x80188e <__data_end>
     f70:	d0 91 8f 18 	lds	r29, 0x188F	; 0x80188f <__data_end+0x1>
     f74:	86 01       	movw	r16, r12
     f76:	00 0f       	add	r16, r16
     f78:	11 1f       	adc	r17, r17
     f7a:	f8 01       	movw	r30, r16
     f7c:	e6 56       	subi	r30, 0x66	; 102
     f7e:	f7 4e       	sbci	r31, 0xE7	; 231
     f80:	6f 01       	movw	r12, r30
     f82:	60 81       	ld	r22, Z
     f84:	71 81       	ldd	r23, Z+1	; 0x01
     f86:	88 e2       	ldi	r24, 0x28	; 40
     f88:	8c 9f       	mul	r24, r28
     f8a:	70 01       	movw	r14, r0
     f8c:	8d 9f       	mul	r24, r29
     f8e:	f0 0c       	add	r15, r0
     f90:	11 24       	eor	r1, r1
     f92:	c7 01       	movw	r24, r14
     f94:	88 53       	subi	r24, 0x38	; 56
     f96:	97 4e       	sbci	r25, 0xE7	; 231
     f98:	0e 94 7f 11 	call	0x22fe	; 0x22fe <strcpy>
		strcpy(save_address[devices], get_address[num]);
     f9c:	f8 01       	movw	r30, r16
     f9e:	ec 56       	subi	r30, 0x6C	; 108
     fa0:	f7 4e       	sbci	r31, 0xE7	; 231
     fa2:	60 81       	ld	r22, Z
     fa4:	71 81       	ldd	r23, Z+1	; 0x01
     fa6:	c7 01       	movw	r24, r14
     fa8:	80 5c       	subi	r24, 0xC0	; 192
     faa:	96 4e       	sbci	r25, 0xE6	; 230
     fac:	0e 94 7f 11 	call	0x22fe	; 0x22fe <strcpy>
		
		devices++;
     fb0:	21 96       	adiw	r28, 0x01	; 1
     fb2:	d0 93 8f 18 	sts	0x188F, r29	; 0x80188f <__data_end+0x1>
     fb6:	c0 93 8e 18 	sts	0x188E, r28	; 0x80188e <__data_end>
        cleanDisplay();
     fba:	ac df       	rcall	.-168    	; 0xf14 <cleanDisplay>
		drawletters("You picked:", 50 ,100,0,0,0);
     fbc:	e1 2c       	mov	r14, r1
     fbe:	00 e0       	ldi	r16, 0x00	; 0
     fc0:	20 e0       	ldi	r18, 0x00	; 0
     fc2:	44 e6       	ldi	r20, 0x64	; 100
     fc4:	50 e0       	ldi	r21, 0x00	; 0
     fc6:	62 e3       	ldi	r22, 0x32	; 50
     fc8:	70 e0       	ldi	r23, 0x00	; 0
     fca:	88 ea       	ldi	r24, 0xA8	; 168
     fcc:	92 e0       	ldi	r25, 0x02	; 2
     fce:	ce d5       	rcall	.+2972   	; 0x1b6c <drawletters>
		drawletters(get_name[num], 50 ,140,0,0,0);
     fd0:	20 e0       	ldi	r18, 0x00	; 0
     fd2:	4c e8       	ldi	r20, 0x8C	; 140
     fd4:	50 e0       	ldi	r21, 0x00	; 0
     fd6:	62 e3       	ldi	r22, 0x32	; 50
     fd8:	70 e0       	ldi	r23, 0x00	; 0
     fda:	f6 01       	movw	r30, r12
     fdc:	80 81       	ld	r24, Z
     fde:	91 81       	ldd	r25, Z+1	; 0x01
     fe0:	c5 d5       	rcall	.+2954   	; 0x1b6c <drawletters>
		return 1;
     fe2:	81 e0       	ldi	r24, 0x01	; 1
     fe4:	90 e0       	ldi	r25, 0x00	; 0
     fe6:	5c c0       	rjmp	.+184    	; 0x10a0 <pickDevices+0x15a>
	}
	else if(_state == 2)
     fe8:	62 30       	cpi	r22, 0x02	; 2
     fea:	71 05       	cpc	r23, r1
     fec:	09 f0       	breq	.+2      	; 0xff0 <pickDevices+0xaa>
     fee:	55 c0       	rjmp	.+170    	; 0x109a <pickDevices+0x154>
	{
		if (devices > 0)
     ff0:	80 91 8e 18 	lds	r24, 0x188E	; 0x80188e <__data_end>
     ff4:	90 91 8f 18 	lds	r25, 0x188F	; 0x80188f <__data_end+0x1>
     ff8:	18 16       	cp	r1, r24
     ffa:	19 06       	cpc	r1, r25
     ffc:	0c f0       	brlt	.+2      	; 0x1000 <pickDevices+0xba>
		{
			cleanDisplay();
     ffe:	4e c0       	rjmp	.+156    	; 0x109c <pickDevices+0x156>
    1000:	89 df       	rcall	.-238    	; 0xf14 <cleanDisplay>
			drawletters("You deleted:", 50 ,100,0,0,0);
    1002:	e1 2c       	mov	r14, r1
    1004:	00 e0       	ldi	r16, 0x00	; 0
    1006:	20 e0       	ldi	r18, 0x00	; 0
    1008:	44 e6       	ldi	r20, 0x64	; 100
    100a:	50 e0       	ldi	r21, 0x00	; 0
    100c:	62 e3       	ldi	r22, 0x32	; 50
    100e:	70 e0       	ldi	r23, 0x00	; 0
    1010:	84 eb       	ldi	r24, 0xB4	; 180
    1012:	92 e0       	ldi	r25, 0x02	; 2
    1014:	ab d5       	rcall	.+2902   	; 0x1b6c <drawletters>
			drawletters(save_name[num], 50 ,140,0,0,0);
    1016:	28 e2       	ldi	r18, 0x28	; 40
    1018:	2c 9d       	mul	r18, r12
    101a:	c0 01       	movw	r24, r0
    101c:	2d 9d       	mul	r18, r13
    101e:	90 0d       	add	r25, r0
    1020:	11 24       	eor	r1, r1
    1022:	20 e0       	ldi	r18, 0x00	; 0
    1024:	4c e8       	ldi	r20, 0x8C	; 140
    1026:	50 e0       	ldi	r21, 0x00	; 0
    1028:	62 e3       	ldi	r22, 0x32	; 50
    102a:	70 e0       	ldi	r23, 0x00	; 0
    102c:	88 53       	subi	r24, 0x38	; 56
    102e:	97 4e       	sbci	r25, 0xE7	; 231
    1030:	9d d5       	rcall	.+2874   	; 0x1b6c <drawletters>
			for (int i=num;i<devices+num;i++)
    1032:	e0 90 8e 18 	lds	r14, 0x188E	; 0x80188e <__data_end>
    1036:	f0 90 8f 18 	lds	r15, 0x188F	; 0x80188f <__data_end+0x1>
    103a:	86 01       	movw	r16, r12
    103c:	0e 0d       	add	r16, r14
    103e:	1f 1d       	adc	r17, r15
    1040:	c0 16       	cp	r12, r16
    1042:	d1 06       	cpc	r13, r17
    1044:	04 f5       	brge	.+64     	; 0x1086 <pickDevices+0x140>
    1046:	88 e2       	ldi	r24, 0x28	; 40
    1048:	8a 9d       	mul	r24, r10
    104a:	e0 01       	movw	r28, r0
    104c:	8b 9d       	mul	r24, r11
    104e:	d0 0d       	add	r29, r0
    1050:	11 24       	eor	r1, r1
    1052:	ce 01       	movw	r24, r28
    1054:	88 53       	subi	r24, 0x38	; 56
    1056:	97 4e       	sbci	r25, 0xE7	; 231
    1058:	5c 01       	movw	r10, r24
    105a:	c0 5c       	subi	r28, 0xC0	; 192
    105c:	d6 4e       	sbci	r29, 0xE6	; 230
			{
				strcpy(save_name[i], save_name[i+1]);
    105e:	9f ef       	ldi	r25, 0xFF	; 255
    1060:	c9 1a       	sub	r12, r25
    1062:	d9 0a       	sbc	r13, r25
    1064:	b5 01       	movw	r22, r10
    1066:	c5 01       	movw	r24, r10
    1068:	88 97       	sbiw	r24, 0x28	; 40
    106a:	0e 94 7f 11 	call	0x22fe	; 0x22fe <strcpy>
				strcpy(save_address[i], save_address[i+1]);
    106e:	be 01       	movw	r22, r28
    1070:	ce 01       	movw	r24, r28
    1072:	88 97       	sbiw	r24, 0x28	; 40
    1074:	0e 94 7f 11 	call	0x22fe	; 0x22fe <strcpy>
    1078:	e8 e2       	ldi	r30, 0x28	; 40
    107a:	ae 0e       	add	r10, r30
    107c:	b1 1c       	adc	r11, r1
    107e:	a8 96       	adiw	r28, 0x28	; 40
		if (devices > 0)
		{
			cleanDisplay();
			drawletters("You deleted:", 50 ,100,0,0,0);
			drawletters(save_name[num], 50 ,140,0,0,0);
			for (int i=num;i<devices+num;i++)
    1080:	c0 16       	cp	r12, r16
    1082:	d1 06       	cpc	r13, r17
    1084:	64 f3       	brlt	.-40     	; 0x105e <pickDevices+0x118>
			{
				strcpy(save_name[i], save_name[i+1]);
				strcpy(save_address[i], save_address[i+1]);
			}
	
			devices--;
    1086:	f1 e0       	ldi	r31, 0x01	; 1
    1088:	ef 1a       	sub	r14, r31
    108a:	f1 08       	sbc	r15, r1
    108c:	f0 92 8f 18 	sts	0x188F, r15	; 0x80188f <__data_end+0x1>
    1090:	e0 92 8e 18 	sts	0x188E, r14	; 0x80188e <__data_end>
			return 1;
    1094:	81 e0       	ldi	r24, 0x01	; 1
    1096:	90 e0       	ldi	r25, 0x00	; 0
    1098:	03 c0       	rjmp	.+6      	; 0x10a0 <pickDevices+0x15a>
		}
		else
		{return 0;}	
	}

}
    109a:	02 c0       	rjmp	.+4      	; 0x10a0 <pickDevices+0x15a>
	
			devices--;
			return 1;
		}
		else
		{return 0;}	
    109c:	80 e0       	ldi	r24, 0x00	; 0
    109e:	90 e0       	ldi	r25, 0x00	; 0
	}

}
    10a0:	df 91       	pop	r29
    10a2:	cf 91       	pop	r28
    10a4:	1f 91       	pop	r17
    10a6:	0f 91       	pop	r16
    10a8:	ff 90       	pop	r15
    10aa:	ef 90       	pop	r14
    10ac:	df 90       	pop	r13
    10ae:	cf 90       	pop	r12
    10b0:	bf 90       	pop	r11
    10b2:	af 90       	pop	r10
    10b4:	08 95       	ret

000010b6 <toggleSwitch>:
void cleanDisplay()
{
	FillRectangle(0,0,320,240,31,63,31);
}
void toggleSwitch()
{
    10b6:	ef 92       	push	r14
    10b8:	0f 93       	push	r16
	if(locked == 2)
    10ba:	80 91 06 02 	lds	r24, 0x0206	; 0x800206 <locked>
    10be:	90 91 07 02 	lds	r25, 0x0207	; 0x800207 <locked+0x1>
    10c2:	82 30       	cpi	r24, 0x02	; 2
    10c4:	91 05       	cpc	r25, r1
    10c6:	21 f5       	brne	.+72     	; 0x1110 <toggleSwitch+0x5a>
	{
		drawletters("LOCK AUTO", start_position_x,start_position_y+60,31,63,31); //make pixel whites
    10c8:	40 91 08 02 	lds	r20, 0x0208	; 0x800208 <start_position_y>
    10cc:	50 91 09 02 	lds	r21, 0x0209	; 0x800209 <start_position_y+0x1>
    10d0:	44 5c       	subi	r20, 0xC4	; 196
    10d2:	5f 4f       	sbci	r21, 0xFF	; 255
    10d4:	60 91 0a 02 	lds	r22, 0x020A	; 0x80020a <start_position_x>
    10d8:	70 91 0b 02 	lds	r23, 0x020B	; 0x80020b <start_position_x+0x1>
    10dc:	0f 2e       	mov	r0, r31
    10de:	ff e1       	ldi	r31, 0x1F	; 31
    10e0:	ef 2e       	mov	r14, r31
    10e2:	f0 2d       	mov	r31, r0
    10e4:	0f e3       	ldi	r16, 0x3F	; 63
    10e6:	2f e1       	ldi	r18, 0x1F	; 31
    10e8:	81 ec       	ldi	r24, 0xC1	; 193
    10ea:	92 e0       	ldi	r25, 0x02	; 2
    10ec:	3f d5       	rcall	.+2686   	; 0x1b6c <drawletters>
		drawletters("LOCK AUTO", start_position_x,start_position_y+60,0,0,0); //make text
    10ee:	40 91 08 02 	lds	r20, 0x0208	; 0x800208 <start_position_y>
    10f2:	50 91 09 02 	lds	r21, 0x0209	; 0x800209 <start_position_y+0x1>
    10f6:	44 5c       	subi	r20, 0xC4	; 196
    10f8:	5f 4f       	sbci	r21, 0xFF	; 255
    10fa:	60 91 0a 02 	lds	r22, 0x020A	; 0x80020a <start_position_x>
    10fe:	70 91 0b 02 	lds	r23, 0x020B	; 0x80020b <start_position_x+0x1>
    1102:	e1 2c       	mov	r14, r1
    1104:	00 e0       	ldi	r16, 0x00	; 0
    1106:	20 e0       	ldi	r18, 0x00	; 0
    1108:	81 ec       	ldi	r24, 0xC1	; 193
    110a:	92 e0       	ldi	r25, 0x02	; 2
    110c:	2f d5       	rcall	.+2654   	; 0x1b6c <drawletters>
    110e:	49 c0       	rjmp	.+146    	; 0x11a2 <toggleSwitch+0xec>
	}
	else if(locked == 1)
    1110:	01 97       	sbiw	r24, 0x01	; 1
    1112:	21 f5       	brne	.+72     	; 0x115c <toggleSwitch+0xa6>
	{
		drawletters("LOCK AUTO", start_position_x,start_position_y+60,31,63,31); //make pixel whites
    1114:	40 91 08 02 	lds	r20, 0x0208	; 0x800208 <start_position_y>
    1118:	50 91 09 02 	lds	r21, 0x0209	; 0x800209 <start_position_y+0x1>
    111c:	44 5c       	subi	r20, 0xC4	; 196
    111e:	5f 4f       	sbci	r21, 0xFF	; 255
    1120:	60 91 0a 02 	lds	r22, 0x020A	; 0x80020a <start_position_x>
    1124:	70 91 0b 02 	lds	r23, 0x020B	; 0x80020b <start_position_x+0x1>
    1128:	0f 2e       	mov	r0, r31
    112a:	ff e1       	ldi	r31, 0x1F	; 31
    112c:	ef 2e       	mov	r14, r31
    112e:	f0 2d       	mov	r31, r0
    1130:	0f e3       	ldi	r16, 0x3F	; 63
    1132:	2f e1       	ldi	r18, 0x1F	; 31
    1134:	81 ec       	ldi	r24, 0xC1	; 193
    1136:	92 e0       	ldi	r25, 0x02	; 2
    1138:	19 d5       	rcall	.+2610   	; 0x1b6c <drawletters>
		drawletters("LOCK OFF", start_position_x,start_position_y+60,0,0,0); //make text
    113a:	40 91 08 02 	lds	r20, 0x0208	; 0x800208 <start_position_y>
    113e:	50 91 09 02 	lds	r21, 0x0209	; 0x800209 <start_position_y+0x1>
    1142:	44 5c       	subi	r20, 0xC4	; 196
    1144:	5f 4f       	sbci	r21, 0xFF	; 255
    1146:	60 91 0a 02 	lds	r22, 0x020A	; 0x80020a <start_position_x>
    114a:	70 91 0b 02 	lds	r23, 0x020B	; 0x80020b <start_position_x+0x1>
    114e:	e1 2c       	mov	r14, r1
    1150:	00 e0       	ldi	r16, 0x00	; 0
    1152:	20 e0       	ldi	r18, 0x00	; 0
    1154:	8b ec       	ldi	r24, 0xCB	; 203
    1156:	92 e0       	ldi	r25, 0x02	; 2
    1158:	09 d5       	rcall	.+2578   	; 0x1b6c <drawletters>
    115a:	23 c0       	rjmp	.+70     	; 0x11a2 <toggleSwitch+0xec>
	}
	else
	{
		drawletters("LOCK AUTO", start_position_x,start_position_y+60,31,63,31); //make pixel whites
    115c:	40 91 08 02 	lds	r20, 0x0208	; 0x800208 <start_position_y>
    1160:	50 91 09 02 	lds	r21, 0x0209	; 0x800209 <start_position_y+0x1>
    1164:	44 5c       	subi	r20, 0xC4	; 196
    1166:	5f 4f       	sbci	r21, 0xFF	; 255
    1168:	60 91 0a 02 	lds	r22, 0x020A	; 0x80020a <start_position_x>
    116c:	70 91 0b 02 	lds	r23, 0x020B	; 0x80020b <start_position_x+0x1>
    1170:	0f 2e       	mov	r0, r31
    1172:	ff e1       	ldi	r31, 0x1F	; 31
    1174:	ef 2e       	mov	r14, r31
    1176:	f0 2d       	mov	r31, r0
    1178:	0f e3       	ldi	r16, 0x3F	; 63
    117a:	2f e1       	ldi	r18, 0x1F	; 31
    117c:	81 ec       	ldi	r24, 0xC1	; 193
    117e:	92 e0       	ldi	r25, 0x02	; 2
    1180:	f5 d4       	rcall	.+2538   	; 0x1b6c <drawletters>
		drawletters("LOCK ON", start_position_x,start_position_y+60,0,0,0); //make text
    1182:	40 91 08 02 	lds	r20, 0x0208	; 0x800208 <start_position_y>
    1186:	50 91 09 02 	lds	r21, 0x0209	; 0x800209 <start_position_y+0x1>
    118a:	44 5c       	subi	r20, 0xC4	; 196
    118c:	5f 4f       	sbci	r21, 0xFF	; 255
    118e:	60 91 0a 02 	lds	r22, 0x020A	; 0x80020a <start_position_x>
    1192:	70 91 0b 02 	lds	r23, 0x020B	; 0x80020b <start_position_x+0x1>
    1196:	e1 2c       	mov	r14, r1
    1198:	00 e0       	ldi	r16, 0x00	; 0
    119a:	20 e0       	ldi	r18, 0x00	; 0
    119c:	84 ed       	ldi	r24, 0xD4	; 212
    119e:	92 e0       	ldi	r25, 0x02	; 2
    11a0:	e5 d4       	rcall	.+2506   	; 0x1b6c <drawletters>
	}
}
    11a2:	0f 91       	pop	r16
    11a4:	ef 90       	pop	r14
    11a6:	08 95       	ret

000011a8 <MakeLogo>:
void MakeLogo()
{
    11a8:	8f 92       	push	r8
    11aa:	af 92       	push	r10
    11ac:	cf 92       	push	r12
    11ae:	df 92       	push	r13
    11b0:	ef 92       	push	r14
    11b2:	ff 92       	push	r15
    11b4:	0f 93       	push	r16
    11b6:	1f 93       	push	r17
	int xposition = 10; 
	drawXletter(LogoBitmaps,4,LogoDescriptors[7]-LogoDescriptors[5],xposition,10,LogoDescriptors[5],LogoDescriptors[5]%8,31,0,0);
    11b8:	1f 92       	push	r1
    11ba:	81 2c       	mov	r8, r1
    11bc:	0f 2e       	mov	r0, r31
    11be:	ff e1       	ldi	r31, 0x1F	; 31
    11c0:	af 2e       	mov	r10, r31
    11c2:	f0 2d       	mov	r31, r0
    11c4:	c1 2c       	mov	r12, r1
    11c6:	d1 2c       	mov	r13, r1
    11c8:	68 94       	set
    11ca:	ee 24       	eor	r14, r14
    11cc:	e4 f8       	bld	r14, 4
    11ce:	ff 24       	eor	r15, r15
    11d0:	f3 94       	inc	r15
    11d2:	0a e0       	ldi	r16, 0x0A	; 10
    11d4:	10 e0       	ldi	r17, 0x00	; 0
    11d6:	2a e0       	ldi	r18, 0x0A	; 10
    11d8:	30 e0       	ldi	r19, 0x00	; 0
    11da:	48 e8       	ldi	r20, 0x88	; 136
    11dc:	50 e0       	ldi	r21, 0x00	; 0
    11de:	64 e0       	ldi	r22, 0x04	; 4
    11e0:	70 e0       	ldi	r23, 0x00	; 0
    11e2:	8f e2       	ldi	r24, 0x2F	; 47
    11e4:	93 e0       	ldi	r25, 0x03	; 3
    11e6:	44 d3       	rcall	.+1672   	; 0x1870 <drawXletter>
	xposition = xposition+32;
	drawXletter(LogoBitmaps,5,LogoDescriptors[5]-LogoDescriptors[3],xposition,10,LogoDescriptors[3],LogoDescriptors[3]%8,31,0,0);
    11e8:	1f 92       	push	r1
    11ea:	0f 2e       	mov	r0, r31
    11ec:	f6 e0       	ldi	r31, 0x06	; 6
    11ee:	cf 2e       	mov	r12, r31
    11f0:	d1 2c       	mov	r13, r1
    11f2:	f0 2d       	mov	r31, r0
    11f4:	0f 2e       	mov	r0, r31
    11f6:	f6 e6       	ldi	r31, 0x66	; 102
    11f8:	ef 2e       	mov	r14, r31
    11fa:	f1 2c       	mov	r15, r1
    11fc:	f0 2d       	mov	r31, r0
    11fe:	2a e2       	ldi	r18, 0x2A	; 42
    1200:	30 e0       	ldi	r19, 0x00	; 0
    1202:	4a ea       	ldi	r20, 0xAA	; 170
    1204:	50 e0       	ldi	r21, 0x00	; 0
    1206:	65 e0       	ldi	r22, 0x05	; 5
    1208:	70 e0       	ldi	r23, 0x00	; 0
    120a:	8f e2       	ldi	r24, 0x2F	; 47
    120c:	93 e0       	ldi	r25, 0x03	; 3
    120e:	30 d3       	rcall	.+1632   	; 0x1870 <drawXletter>
	xposition = xposition+39;
	drawXletter(LogoBitmaps,3,LogoDescriptors[3]-LogoDescriptors[1],xposition,10,LogoDescriptors[1],LogoDescriptors[1]%8,31,0,0);
    1210:	1f 92       	push	r1
    1212:	c1 2c       	mov	r12, r1
    1214:	d1 2c       	mov	r13, r1
    1216:	e1 2c       	mov	r14, r1
    1218:	f1 2c       	mov	r15, r1
    121a:	21 e5       	ldi	r18, 0x51	; 81
    121c:	30 e0       	ldi	r19, 0x00	; 0
    121e:	46 e6       	ldi	r20, 0x66	; 102
    1220:	50 e0       	ldi	r21, 0x00	; 0
    1222:	63 e0       	ldi	r22, 0x03	; 3
    1224:	70 e0       	ldi	r23, 0x00	; 0
    1226:	8f e2       	ldi	r24, 0x2F	; 47
    1228:	93 e0       	ldi	r25, 0x03	; 3
    122a:	22 d3       	rcall	.+1604   	; 0x1870 <drawXletter>
	xposition = xposition+18;
	drawXletter(LogoBitmaps,4,540-LogoDescriptors[7],xposition,10,LogoDescriptors[7],LogoDescriptors[7]%8,31,0,0);
    122c:	1f 92       	push	r1
    122e:	0f 2e       	mov	r0, r31
    1230:	f8 e9       	ldi	r31, 0x98	; 152
    1232:	ef 2e       	mov	r14, r31
    1234:	ff 24       	eor	r15, r15
    1236:	f3 94       	inc	r15
    1238:	f0 2d       	mov	r31, r0
    123a:	23 e6       	ldi	r18, 0x63	; 99
    123c:	30 e0       	ldi	r19, 0x00	; 0
    123e:	44 e8       	ldi	r20, 0x84	; 132
    1240:	50 e0       	ldi	r21, 0x00	; 0
    1242:	64 e0       	ldi	r22, 0x04	; 4
    1244:	70 e0       	ldi	r23, 0x00	; 0
    1246:	8f e2       	ldi	r24, 0x2F	; 47
    1248:	93 e0       	ldi	r25, 0x03	; 3
    124a:	12 d3       	rcall	.+1572   	; 0x1870 <drawXletter>
	xposition = xposition+35;
	drawXletter(LogoBitmaps,5,LogoDescriptors[5]-LogoDescriptors[3],xposition,10,LogoDescriptors[3],LogoDescriptors[3]%8,31,0,0);
    124c:	1f 92       	push	r1
    124e:	0f 2e       	mov	r0, r31
    1250:	f6 e0       	ldi	r31, 0x06	; 6
    1252:	cf 2e       	mov	r12, r31
    1254:	d1 2c       	mov	r13, r1
    1256:	f0 2d       	mov	r31, r0
    1258:	0f 2e       	mov	r0, r31
    125a:	f6 e6       	ldi	r31, 0x66	; 102
    125c:	ef 2e       	mov	r14, r31
    125e:	f1 2c       	mov	r15, r1
    1260:	f0 2d       	mov	r31, r0
    1262:	26 e8       	ldi	r18, 0x86	; 134
    1264:	30 e0       	ldi	r19, 0x00	; 0
    1266:	4a ea       	ldi	r20, 0xAA	; 170
    1268:	50 e0       	ldi	r21, 0x00	; 0
    126a:	65 e0       	ldi	r22, 0x05	; 5
    126c:	70 e0       	ldi	r23, 0x00	; 0
    126e:	8f e2       	ldi	r24, 0x2F	; 47
    1270:	93 e0       	ldi	r25, 0x03	; 3
    1272:	fe d2       	rcall	.+1532   	; 0x1870 <drawXletter>
}
    1274:	0f 90       	pop	r0
    1276:	0f 90       	pop	r0
    1278:	0f 90       	pop	r0
    127a:	0f 90       	pop	r0
    127c:	0f 90       	pop	r0
    127e:	1f 91       	pop	r17
    1280:	0f 91       	pop	r16
    1282:	ff 90       	pop	r15
    1284:	ef 90       	pop	r14
    1286:	df 90       	pop	r13
    1288:	cf 90       	pop	r12
    128a:	af 90       	pop	r10
    128c:	8f 90       	pop	r8
    128e:	08 95       	ret

00001290 <wait>:



// PUBLIC FUNCTIONS 
void wait()
{
    1290:	ef 92       	push	r14
    1292:	0f 93       	push	r16
	cleanDisplay();
    1294:	3f de       	rcall	.-898    	; 0xf14 <cleanDisplay>
	drawletters("SEARCHING", 100,108,0,0,0);
    1296:	e1 2c       	mov	r14, r1
    1298:	00 e0       	ldi	r16, 0x00	; 0
    129a:	20 e0       	ldi	r18, 0x00	; 0
    129c:	4c e6       	ldi	r20, 0x6C	; 108
    129e:	50 e0       	ldi	r21, 0x00	; 0
    12a0:	64 e6       	ldi	r22, 0x64	; 100
    12a2:	70 e0       	ldi	r23, 0x00	; 0
    12a4:	8c ed       	ldi	r24, 0xDC	; 220
    12a6:	92 e0       	ldi	r25, 0x02	; 2
	MakeLogo();
    12a8:	61 d4       	rcall	.+2242   	; 0x1b6c <drawletters>
    12aa:	7e df       	rcall	.-260    	; 0x11a8 <MakeLogo>
	
}
    12ac:	0f 91       	pop	r16
    12ae:	ef 90       	pop	r14
    12b0:	08 95       	ret

000012b2 <welcome>:
void welcome()
{
    12b2:	ef 92       	push	r14
    12b4:	0f 93       	push	r16
	cleanDisplay();
    12b6:	2e de       	rcall	.-932    	; 0xf14 <cleanDisplay>
	drawletters("WELCOME", 100,108,0,0,0);
    12b8:	e1 2c       	mov	r14, r1
    12ba:	00 e0       	ldi	r16, 0x00	; 0
    12bc:	20 e0       	ldi	r18, 0x00	; 0
    12be:	4c e6       	ldi	r20, 0x6C	; 108
    12c0:	50 e0       	ldi	r21, 0x00	; 0
    12c2:	64 e6       	ldi	r22, 0x64	; 100
    12c4:	70 e0       	ldi	r23, 0x00	; 0
    12c6:	86 ee       	ldi	r24, 0xE6	; 230
    12c8:	92 e0       	ldi	r25, 0x02	; 2
	MakeLogo();
    12ca:	50 d4       	rcall	.+2208   	; 0x1b6c <drawletters>
    12cc:	6d df       	rcall	.-294    	; 0x11a8 <MakeLogo>
}
    12ce:	0f 91       	pop	r16
    12d0:	ef 90       	pop	r14
    12d2:	08 95       	ret

000012d4 <makedisplay>:
int makedisplay(int state)
{
    12d4:	8f 92       	push	r8
    12d6:	9f 92       	push	r9
    12d8:	af 92       	push	r10
    12da:	bf 92       	push	r11
    12dc:	cf 92       	push	r12
    12de:	df 92       	push	r13
    12e0:	ef 92       	push	r14
    12e2:	0f 93       	push	r16
    12e4:	1f 93       	push	r17
    12e6:	cf 93       	push	r28
    12e8:	df 93       	push	r29
    12ea:	4c 01       	movw	r8, r24
	
	switch (state)
    12ec:	02 97       	sbiw	r24, 0x02	; 2
    12ee:	09 f4       	brne	.+2      	; 0x12f2 <makedisplay+0x1e>
    12f0:	aa c0       	rjmp	.+340    	; 0x1446 <makedisplay+0x172>
    12f2:	83 e0       	ldi	r24, 0x03	; 3
    12f4:	88 16       	cp	r8, r24
    12f6:	91 04       	cpc	r9, r1
    12f8:	09 f4       	brne	.+2      	; 0x12fc <makedisplay+0x28>
    12fa:	f5 c0       	rjmp	.+490    	; 0x14e6 <makedisplay+0x212>
    12fc:	e1 e0       	ldi	r30, 0x01	; 1
    12fe:	8e 16       	cp	r8, r30
    1300:	91 04       	cpc	r9, r1
    1302:	09 f0       	breq	.+2      	; 0x1306 <makedisplay+0x32>
    1304:	f3 c0       	rjmp	.+486    	; 0x14ec <makedisplay+0x218>
		{
		
			case 1: //add device
				wait();
    1306:	c4 df       	rcall	.-120    	; 0x1290 <wait>
				trustedDevicesScan();
    1308:	75 db       	rcall	.-2326   	; 0x9f4 <trustedDevicesScan>
    130a:	04 e9       	ldi	r16, 0x94	; 148
    130c:	18 e1       	ldi	r17, 0x18	; 24
    130e:	c1 2c       	mov	r12, r1
				for (int i=0; i<4; i++)
    1310:	d1 2c       	mov	r13, r1
    1312:	ff ef       	ldi	r31, 0xFF	; 255
				{
					variable2 = getTrustedDeviceAddress(i+1);
    1314:	cf 1a       	sub	r12, r31
    1316:	df 0a       	sbc	r13, r31
    1318:	c6 01       	movw	r24, r12
    131a:	60 dc       	rcall	.-1856   	; 0xbdc <getTrustedDeviceAddress>
    131c:	ec 01       	movw	r28, r24
    131e:	90 93 c7 18 	sts	0x18C7, r25	; 0x8018c7 <variable2+0x1>
    1322:	80 93 c6 18 	sts	0x18C6, r24	; 0x8018c6 <variable2>
    1326:	fc 01       	movw	r30, r24
					get_address[i] = malloc(strlen(variable2)+1); //0 terminering
    1328:	01 90       	ld	r0, Z+
    132a:	00 20       	and	r0, r0
    132c:	e9 f7       	brne	.-6      	; 0x1328 <makedisplay+0x54>
    132e:	cf 01       	movw	r24, r30
    1330:	8c 1b       	sub	r24, r28
    1332:	9d 0b       	sbc	r25, r29
    1334:	97 d6       	rcall	.+3374   	; 0x2064 <malloc>
    1336:	f8 01       	movw	r30, r16
    1338:	81 93       	st	Z+, r24
    133a:	91 93       	st	Z+, r25
    133c:	8f 01       	movw	r16, r30
					strcpy(get_address[i],variable2);
    133e:	be 01       	movw	r22, r28
    1340:	de d7       	rcall	.+4028   	; 0x22fe <strcpy>
    1342:	f4 e0       	ldi	r31, 0x04	; 4
		{
		
			case 1: //add device
				wait();
				trustedDevicesScan();
				for (int i=0; i<4; i++)
    1344:	cf 16       	cp	r12, r31
    1346:	d1 04       	cpc	r13, r1
    1348:	21 f7       	brne	.-56     	; 0x1312 <makedisplay+0x3e>
    134a:	0f 2e       	mov	r0, r31
    134c:	fa e9       	ldi	r31, 0x9A	; 154
    134e:	af 2e       	mov	r10, r31
    1350:	f8 e1       	ldi	r31, 0x18	; 24
    1352:	bf 2e       	mov	r11, r31
    1354:	f0 2d       	mov	r31, r0
    1356:	85 01       	movw	r16, r10
    1358:	c1 2c       	mov	r12, r1
    135a:	d1 2c       	mov	r13, r1
    135c:	2f ef       	ldi	r18, 0xFF	; 255
					strcpy(get_address[i],variable2);
				}
				
				for (int i=0; i<4; i++)
				{
					variable1 = getTrustedDeviceName(i+1);
    135e:	c2 1a       	sub	r12, r18
    1360:	d2 0a       	sbc	r13, r18
    1362:	c6 01       	movw	r24, r12
    1364:	17 dc       	rcall	.-2002   	; 0xb94 <getTrustedDeviceName>
    1366:	ec 01       	movw	r28, r24
    1368:	90 93 c5 18 	sts	0x18C5, r25	; 0x8018c5 <variable1+0x1>
    136c:	80 93 c4 18 	sts	0x18C4, r24	; 0x8018c4 <variable1>
    1370:	fc 01       	movw	r30, r24
					get_name[i] = malloc(strlen(variable1)+1); //0 terminering
    1372:	01 90       	ld	r0, Z+
    1374:	00 20       	and	r0, r0
    1376:	e9 f7       	brne	.-6      	; 0x1372 <makedisplay+0x9e>
    1378:	cf 01       	movw	r24, r30
    137a:	8c 1b       	sub	r24, r28
    137c:	9d 0b       	sbc	r25, r29
    137e:	72 d6       	rcall	.+3300   	; 0x2064 <malloc>
    1380:	f8 01       	movw	r30, r16
    1382:	81 93       	st	Z+, r24
    1384:	91 93       	st	Z+, r25
    1386:	8f 01       	movw	r16, r30
					strcpy(get_name[i],variable1);
    1388:	be 01       	movw	r22, r28
    138a:	b9 d7       	rcall	.+3954   	; 0x22fe <strcpy>
					variable2 = getTrustedDeviceAddress(i+1);
					get_address[i] = malloc(strlen(variable2)+1); //0 terminering
					strcpy(get_address[i],variable2);
				}
				
				for (int i=0; i<4; i++)
    138c:	f4 e0       	ldi	r31, 0x04	; 4
    138e:	cf 16       	cp	r12, r31
    1390:	d1 04       	cpc	r13, r1
    1392:	21 f7       	brne	.-56     	; 0x135c <makedisplay+0x88>
				{
					variable1 = getTrustedDeviceName(i+1);
					get_name[i] = malloc(strlen(variable1)+1); //0 terminering
					strcpy(get_name[i],variable1);
				}
				cleanDisplay();
    1394:	bf dd       	rcall	.-1154   	; 0xf14 <cleanDisplay>
    1396:	40 91 08 02 	lds	r20, 0x0208	; 0x800208 <start_position_y>
				drawletters("AVALIBLE DEVICES:", start_position_x-40,start_position_y-40,0,0,0);
    139a:	50 91 09 02 	lds	r21, 0x0209	; 0x800209 <start_position_y+0x1>
    139e:	48 52       	subi	r20, 0x28	; 40
    13a0:	51 09       	sbc	r21, r1
    13a2:	60 91 0a 02 	lds	r22, 0x020A	; 0x80020a <start_position_x>
    13a6:	70 91 0b 02 	lds	r23, 0x020B	; 0x80020b <start_position_x+0x1>
    13aa:	68 52       	subi	r22, 0x28	; 40
    13ac:	71 09       	sbc	r23, r1
    13ae:	e1 2c       	mov	r14, r1
    13b0:	00 e0       	ldi	r16, 0x00	; 0
    13b2:	20 e0       	ldi	r18, 0x00	; 0
    13b4:	8e ee       	ldi	r24, 0xEE	; 238
    13b6:	92 e0       	ldi	r25, 0x02	; 2
    13b8:	d9 d3       	rcall	.+1970   	; 0x1b6c <drawletters>
    13ba:	10 92 8f 18 	sts	0x188F, r1	; 0x80188f <__data_end+0x1>
				devices = 0;
    13be:	10 92 8e 18 	sts	0x188E, r1	; 0x80188e <__data_end>
    13c2:	0f 2e       	mov	r0, r31
    13c4:	f0 e4       	ldi	r31, 0x40	; 64
    13c6:	cf 2e       	mov	r12, r31
    13c8:	f9 e1       	ldi	r31, 0x19	; 25
    13ca:	df 2e       	mov	r13, r31
    13cc:	f0 2d       	mov	r31, r0
    13ce:	c0 e0       	ldi	r28, 0x00	; 0
    13d0:	d0 e0       	ldi	r29, 0x00	; 0
				
				for (int i=0;i<4;i++)
				{
					
					if (strcmp(save_address[i],"N/A") !=  0)
    13d2:	65 e4       	ldi	r22, 0x45	; 69
    13d4:	72 e0       	ldi	r23, 0x02	; 2
    13d6:	c6 01       	movw	r24, r12
    13d8:	89 d7       	rcall	.+3858   	; 0x22ec <strcmp>
    13da:	89 2b       	or	r24, r25
    13dc:	d1 f0       	breq	.+52     	; 0x1412 <makedisplay+0x13e>
    13de:	40 91 08 02 	lds	r20, 0x0208	; 0x800208 <start_position_y>
					{
						drawletters(get_name[i], start_position_x,start_position_y+(30*i),0,0,0);
    13e2:	50 91 09 02 	lds	r21, 0x0209	; 0x800209 <start_position_y+0x1>
    13e6:	4c 0f       	add	r20, r28
    13e8:	5d 1f       	adc	r21, r29
    13ea:	60 91 0a 02 	lds	r22, 0x020A	; 0x80020a <start_position_x>
    13ee:	70 91 0b 02 	lds	r23, 0x020B	; 0x80020b <start_position_x+0x1>
    13f2:	e1 2c       	mov	r14, r1
    13f4:	00 e0       	ldi	r16, 0x00	; 0
    13f6:	20 e0       	ldi	r18, 0x00	; 0
    13f8:	f5 01       	movw	r30, r10
    13fa:	80 81       	ld	r24, Z
    13fc:	91 81       	ldd	r25, Z+1	; 0x01
    13fe:	b6 d3       	rcall	.+1900   	; 0x1b6c <drawletters>
    1400:	80 91 8e 18 	lds	r24, 0x188E	; 0x80188e <__data_end>
						devices++;
    1404:	90 91 8f 18 	lds	r25, 0x188F	; 0x80188f <__data_end+0x1>
    1408:	01 96       	adiw	r24, 0x01	; 1
    140a:	90 93 8f 18 	sts	0x188F, r25	; 0x80188f <__data_end+0x1>
    140e:	80 93 8e 18 	sts	0x188E, r24	; 0x80188e <__data_end>
    1412:	f8 e2       	ldi	r31, 0x28	; 40
    1414:	cf 0e       	add	r12, r31
    1416:	d1 1c       	adc	r13, r1
    1418:	6e 96       	adiw	r28, 0x1e	; 30
    141a:	22 e0       	ldi	r18, 0x02	; 2
				}
				cleanDisplay();
				drawletters("AVALIBLE DEVICES:", start_position_x-40,start_position_y-40,0,0,0);
				devices = 0;
				
				for (int i=0;i<4;i++)
    141c:	a2 0e       	add	r10, r18
    141e:	b1 1c       	adc	r11, r1
    1420:	c8 37       	cpi	r28, 0x78	; 120
						devices++;
					}
				}
				
				//drawNumber(devices,300,100,0,0,0); //debug devices
				addPointer();
    1422:	d1 05       	cpc	r29, r1
    1424:	b1 f6       	brne	.-84     	; 0x13d2 <makedisplay+0xfe>
				lock();
    1426:	ea dc       	rcall	.-1580   	; 0xdfc <addPointer>
    1428:	fe dc       	rcall	.-1540   	; 0xe26 <lock>
				TouchDraw();
    142a:	3c dd       	rcall	.-1416   	; 0xea4 <TouchDraw>
    142c:	80 91 8e 18 	lds	r24, 0x188E	; 0x80188e <__data_end>
				pointer_max = devices;
    1430:	90 91 8f 18 	lds	r25, 0x188F	; 0x80188f <__data_end+0x1>
    1434:	90 93 91 18 	sts	0x1891, r25	; 0x801891 <pointer_max+0x1>
    1438:	80 93 90 18 	sts	0x1890, r24	; 0x801890 <pointer_max>
				devices = 0;
    143c:	10 92 8f 18 	sts	0x188F, r1	; 0x80188f <__data_end+0x1>
    1440:	10 92 8e 18 	sts	0x188E, r1	; 0x80188e <__data_end>
				break;
    1444:	7f c0       	rjmp	.+254    	; 0x1544 <makedisplay+0x270>
			case 2: //remove device
				cleanDisplay();
    1446:	66 dd       	rcall	.-1332   	; 0xf14 <cleanDisplay>
    1448:	10 92 93 18 	sts	0x1893, r1	; 0x801893 <pointer_position_y+0x1>
				pointer_position_y = 0;
    144c:	10 92 92 18 	sts	0x1892, r1	; 0x801892 <pointer_position_y>
    1450:	40 91 08 02 	lds	r20, 0x0208	; 0x800208 <start_position_y>
				
				drawletters("REMOVE DEVICE:", start_position_x-40,start_position_y-40,0,0,0);
    1454:	50 91 09 02 	lds	r21, 0x0209	; 0x800209 <start_position_y+0x1>
    1458:	48 52       	subi	r20, 0x28	; 40
    145a:	51 09       	sbc	r21, r1
    145c:	60 91 0a 02 	lds	r22, 0x020A	; 0x80020a <start_position_x>
    1460:	70 91 0b 02 	lds	r23, 0x020B	; 0x80020b <start_position_x+0x1>
    1464:	68 52       	subi	r22, 0x28	; 40
    1466:	71 09       	sbc	r23, r1
    1468:	e1 2c       	mov	r14, r1
    146a:	00 e0       	ldi	r16, 0x00	; 0
    146c:	20 e0       	ldi	r18, 0x00	; 0
    146e:	80 e0       	ldi	r24, 0x00	; 0
    1470:	93 e0       	ldi	r25, 0x03	; 3
    1472:	7c d3       	rcall	.+1784   	; 0x1b6c <drawletters>
    1474:	80 91 8e 18 	lds	r24, 0x188E	; 0x80188e <__data_end>
				pointer_max = devices;
    1478:	90 91 8f 18 	lds	r25, 0x188F	; 0x80188f <__data_end+0x1>
    147c:	90 93 91 18 	sts	0x1891, r25	; 0x801891 <pointer_max+0x1>
    1480:	80 93 90 18 	sts	0x1890, r24	; 0x801890 <pointer_max>
    1484:	18 16       	cp	r1, r24
			
				for (int i=0;i<devices;i++)
    1486:	19 06       	cpc	r1, r25
    1488:	5c f5       	brge	.+86     	; 0x14e0 <makedisplay+0x20c>
    148a:	0f 2e       	mov	r0, r31
    148c:	f8 ec       	ldi	r31, 0xC8	; 200
    148e:	af 2e       	mov	r10, r31
    1490:	f8 e1       	ldi	r31, 0x18	; 24
    1492:	bf 2e       	mov	r11, r31
    1494:	f0 2d       	mov	r31, r0
    1496:	c1 2c       	mov	r12, r1
    1498:	d1 2c       	mov	r13, r1
    149a:	c0 e0       	ldi	r28, 0x00	; 0
    149c:	d0 e0       	ldi	r29, 0x00	; 0
					{
						drawletters(save_name[i], start_position_x,start_position_y+(30*i),0,0,0);	
    149e:	40 91 08 02 	lds	r20, 0x0208	; 0x800208 <start_position_y>
    14a2:	50 91 09 02 	lds	r21, 0x0209	; 0x800209 <start_position_y+0x1>
    14a6:	4c 0d       	add	r20, r12
    14a8:	5d 1d       	adc	r21, r13
    14aa:	60 91 0a 02 	lds	r22, 0x020A	; 0x80020a <start_position_x>
    14ae:	70 91 0b 02 	lds	r23, 0x020B	; 0x80020b <start_position_x+0x1>
    14b2:	e1 2c       	mov	r14, r1
    14b4:	00 e0       	ldi	r16, 0x00	; 0
    14b6:	20 e0       	ldi	r18, 0x00	; 0
    14b8:	c5 01       	movw	r24, r10
    14ba:	58 d3       	rcall	.+1712   	; 0x1b6c <drawletters>
    14bc:	21 96       	adiw	r28, 0x01	; 1
				pointer_position_y = 0;
				
				drawletters("REMOVE DEVICE:", start_position_x-40,start_position_y-40,0,0,0);
				pointer_max = devices;
			
				for (int i=0;i<devices;i++)
    14be:	80 91 8e 18 	lds	r24, 0x188E	; 0x80188e <__data_end>
    14c2:	90 91 8f 18 	lds	r25, 0x188F	; 0x80188f <__data_end+0x1>
    14c6:	ee e1       	ldi	r30, 0x1E	; 30
    14c8:	ce 0e       	add	r12, r30
    14ca:	d1 1c       	adc	r13, r1
    14cc:	f8 e2       	ldi	r31, 0x28	; 40
					{
						drawletters(save_name[i], start_position_x,start_position_y+(30*i),0,0,0);	
					}
			
				//drawNumber(devices,300,100,0,0,0); //debug devices
				if(devices > 0)
    14ce:	af 0e       	add	r10, r31
    14d0:	b1 1c       	adc	r11, r1
    14d2:	c8 17       	cp	r28, r24
				{
					addPointer();
    14d4:	d9 07       	cpc	r29, r25
    14d6:	1c f3       	brlt	.-58     	; 0x149e <makedisplay+0x1ca>
				}
				lock();
    14d8:	18 16       	cp	r1, r24
    14da:	19 06       	cpc	r1, r25
				TouchDraw();
    14dc:	0c f4       	brge	.+2      	; 0x14e0 <makedisplay+0x20c>
    14de:	8e dc       	rcall	.-1764   	; 0xdfc <addPointer>
				break;
    14e0:	a2 dc       	rcall	.-1724   	; 0xe26 <lock>
			case 3: //lock switch
				toggleLock();
    14e2:	e0 dc       	rcall	.-1600   	; 0xea4 <TouchDraw>
    14e4:	2f c0       	rjmp	.+94     	; 0x1544 <makedisplay+0x270>
				toggleSwitch();
    14e6:	cb dc       	rcall	.-1642   	; 0xe7e <toggleLock>
    14e8:	e6 dd       	rcall	.-1076   	; 0x10b6 <toggleSwitch>
				
				break;
			default:
				cleanDisplay();
    14ea:	2c c0       	rjmp	.+88     	; 0x1544 <makedisplay+0x270>
    14ec:	13 dd       	rcall	.-1498   	; 0xf14 <cleanDisplay>
				pointer_max = 3;
    14ee:	83 e0       	ldi	r24, 0x03	; 3
    14f0:	90 e0       	ldi	r25, 0x00	; 0
    14f2:	90 93 91 18 	sts	0x1891, r25	; 0x801891 <pointer_max+0x1>
    14f6:	80 93 90 18 	sts	0x1890, r24	; 0x801890 <pointer_max>
				drawletters("ADD DEVICE", start_position_x,start_position_y,0,0,0);
    14fa:	40 91 08 02 	lds	r20, 0x0208	; 0x800208 <start_position_y>
    14fe:	50 91 09 02 	lds	r21, 0x0209	; 0x800209 <start_position_y+0x1>
    1502:	60 91 0a 02 	lds	r22, 0x020A	; 0x80020a <start_position_x>
    1506:	70 91 0b 02 	lds	r23, 0x020B	; 0x80020b <start_position_x+0x1>
    150a:	e1 2c       	mov	r14, r1
    150c:	00 e0       	ldi	r16, 0x00	; 0
				drawletters("REMOVE DEVICE", start_position_x,start_position_y+30,0,0,0);
    150e:	20 e0       	ldi	r18, 0x00	; 0
    1510:	8f e0       	ldi	r24, 0x0F	; 15
    1512:	93 e0       	ldi	r25, 0x03	; 3
    1514:	2b d3       	rcall	.+1622   	; 0x1b6c <drawletters>
    1516:	40 91 08 02 	lds	r20, 0x0208	; 0x800208 <start_position_y>
    151a:	50 91 09 02 	lds	r21, 0x0209	; 0x800209 <start_position_y+0x1>
    151e:	42 5e       	subi	r20, 0xE2	; 226
    1520:	5f 4f       	sbci	r21, 0xFF	; 255
    1522:	60 91 0a 02 	lds	r22, 0x020A	; 0x80020a <start_position_x>
    1526:	70 91 0b 02 	lds	r23, 0x020B	; 0x80020b <start_position_x+0x1>
    152a:	20 e0       	ldi	r18, 0x00	; 0
				toggleSwitch();
    152c:	8a e1       	ldi	r24, 0x1A	; 26
    152e:	93 e0       	ldi	r25, 0x03	; 3
				addPointer();
    1530:	1d d3       	rcall	.+1594   	; 0x1b6c <drawletters>
    1532:	c1 dd       	rcall	.-1150   	; 0x10b6 <toggleSwitch>
				lock();
    1534:	63 dc       	rcall	.-1850   	; 0xdfc <addPointer>
    1536:	77 dc       	rcall	.-1810   	; 0xe26 <lock>
				TouchDraw();
    1538:	b5 dc       	rcall	.-1686   	; 0xea4 <TouchDraw>
    153a:	36 de       	rcall	.-916    	; 0x11a8 <MakeLogo>
				MakeLogo();
    153c:	10 92 93 18 	sts	0x1893, r1	; 0x801893 <pointer_position_y+0x1>
				pointer_position_y = 0;
    1540:	10 92 92 18 	sts	0x1892, r1	; 0x801892 <pointer_position_y>
    1544:	c4 01       	movw	r24, r8
    1546:	df 91       	pop	r29
				break;
		}
		return state;
}
    1548:	cf 91       	pop	r28
    154a:	1f 91       	pop	r17
    154c:	0f 91       	pop	r16
    154e:	ef 90       	pop	r14
    1550:	df 90       	pop	r13
    1552:	cf 90       	pop	r12
    1554:	bf 90       	pop	r11
    1556:	af 90       	pop	r10
    1558:	9f 90       	pop	r9
    155a:	8f 90       	pop	r8
    155c:	08 95       	ret

0000155e <backgroundprocess>:
    155e:	6f 92       	push	r6
    1560:	7f 92       	push	r7
	drawXletter(LogoBitmaps,4,540-LogoDescriptors[7],xposition,10,LogoDescriptors[7],LogoDescriptors[7]%8,31,0,0);
	xposition = xposition+35;
	drawXletter(LogoBitmaps,5,LogoDescriptors[5]-LogoDescriptors[3],xposition,10,LogoDescriptors[3],LogoDescriptors[3]%8,31,0,0);
}
void backgroundprocess(int idle_state)
{
    1562:	8f 92       	push	r8
    1564:	9f 92       	push	r9
    1566:	af 92       	push	r10
    1568:	bf 92       	push	r11
    156a:	cf 92       	push	r12
    156c:	df 92       	push	r13
    156e:	ef 92       	push	r14
    1570:	ff 92       	push	r15
    1572:	0f 93       	push	r16
    1574:	1f 93       	push	r17
    1576:	cf 93       	push	r28
    1578:	df 93       	push	r29
	if(locked == 2 && idle_state == 0)
    157a:	20 91 06 02 	lds	r18, 0x0206	; 0x800206 <locked>
    157e:	30 91 07 02 	lds	r19, 0x0207	; 0x800207 <locked+0x1>
    1582:	22 30       	cpi	r18, 0x02	; 2
    1584:	31 05       	cpc	r19, r1
    1586:	09 f0       	breq	.+2      	; 0x158a <backgroundprocess+0x2c>
    1588:	7b c0       	rjmp	.+246    	; 0x1680 <backgroundprocess+0x122>
    158a:	89 2b       	or	r24, r25
    158c:	09 f0       	breq	.+2      	; 0x1590 <backgroundprocess+0x32>
    158e:	78 c0       	rjmp	.+240    	; 0x1680 <backgroundprocess+0x122>
	{
		drawletters("UPDATE", start_position_x,start_position_y+90,0,0,0);
    1590:	40 91 08 02 	lds	r20, 0x0208	; 0x800208 <start_position_y>
    1594:	50 91 09 02 	lds	r21, 0x0209	; 0x800209 <start_position_y+0x1>
    1598:	46 5a       	subi	r20, 0xA6	; 166
    159a:	5f 4f       	sbci	r21, 0xFF	; 255
    159c:	60 91 0a 02 	lds	r22, 0x020A	; 0x80020a <start_position_x>
    15a0:	70 91 0b 02 	lds	r23, 0x020B	; 0x80020b <start_position_x+0x1>
    15a4:	e1 2c       	mov	r14, r1
    15a6:	00 e0       	ldi	r16, 0x00	; 0
    15a8:	20 e0       	ldi	r18, 0x00	; 0
    15aa:	88 e2       	ldi	r24, 0x28	; 40
    15ac:	93 e0       	ldi	r25, 0x03	; 3
    15ae:	de d2       	rcall	.+1468   	; 0x1b6c <drawletters>
		int lock_flag = 0;
		nearbyDevicesScan();
    15b0:	0e 94 98 02 	call	0x530	; 0x530 <nearbyDevicesScan>
    15b4:	0f 2e       	mov	r0, r31
    15b6:	f4 e9       	ldi	r31, 0x94	; 148
    15b8:	af 2e       	mov	r10, r31
    15ba:	f8 e1       	ldi	r31, 0x18	; 24
    15bc:	bf 2e       	mov	r11, r31
    15be:	f0 2d       	mov	r31, r0
		for (int i=0; i<4; i++)
    15c0:	c1 2c       	mov	r12, r1
    15c2:	d1 2c       	mov	r13, r1
void backgroundprocess(int idle_state)
{
	if(locked == 2 && idle_state == 0)
	{
		drawletters("UPDATE", start_position_x,start_position_y+90,0,0,0);
		int lock_flag = 0;
    15c4:	81 2c       	mov	r8, r1
    15c6:	91 2c       	mov	r9, r1
    15c8:	0f 2e       	mov	r0, r31
    15ca:	f0 ee       	ldi	r31, 0xE0	; 224
    15cc:	ef 2e       	mov	r14, r31
    15ce:	f9 e1       	ldi	r31, 0x19	; 25
    15d0:	ff 2e       	mov	r15, r31
    15d2:	f0 2d       	mov	r31, r0
			strcpy(get_address[i],variable2);
			for (int j=0; j<4; j++)
			{
				if (strcmp(save_address[j],get_address[i]) ==  0)
				{
					locked = 1;
    15d4:	66 24       	eor	r6, r6
    15d6:	63 94       	inc	r6
    15d8:	71 2c       	mov	r7, r1
		drawletters("UPDATE", start_position_x,start_position_y+90,0,0,0);
		int lock_flag = 0;
		nearbyDevicesScan();
		for (int i=0; i<4; i++)
		{
			variable2 = getNearbyDeviceAddress(i+1);
    15da:	8f ef       	ldi	r24, 0xFF	; 255
    15dc:	c8 1a       	sub	r12, r24
    15de:	d8 0a       	sbc	r13, r24
    15e0:	c6 01       	movw	r24, r12
    15e2:	20 db       	rcall	.-2496   	; 0xc24 <getNearbyDeviceAddress>
    15e4:	ec 01       	movw	r28, r24
    15e6:	90 93 c7 18 	sts	0x18C7, r25	; 0x8018c7 <variable2+0x1>
    15ea:	80 93 c6 18 	sts	0x18C6, r24	; 0x8018c6 <variable2>
			get_address[i] = malloc(strlen(variable2)+1); //0 terminering
    15ee:	fc 01       	movw	r30, r24
    15f0:	01 90       	ld	r0, Z+
    15f2:	00 20       	and	r0, r0
    15f4:	e9 f7       	brne	.-6      	; 0x15f0 <backgroundprocess+0x92>
    15f6:	cf 01       	movw	r24, r30
    15f8:	8c 1b       	sub	r24, r28
    15fa:	9d 0b       	sbc	r25, r29
    15fc:	33 d5       	rcall	.+2662   	; 0x2064 <malloc>
    15fe:	85 01       	movw	r16, r10
    1600:	f5 01       	movw	r30, r10
    1602:	91 83       	std	Z+1, r25	; 0x01
			strcpy(get_address[i],variable2);
    1604:	80 83       	st	Z, r24
    1606:	be 01       	movw	r22, r28
    1608:	7a d6       	rcall	.+3316   	; 0x22fe <strcpy>
    160a:	c0 e4       	ldi	r28, 0x40	; 64
    160c:	d9 e1       	ldi	r29, 0x19	; 25
			for (int j=0; j<4; j++)
			{
				if (strcmp(save_address[j],get_address[i]) ==  0)
    160e:	f8 01       	movw	r30, r16
    1610:	60 81       	ld	r22, Z
    1612:	71 81       	ldd	r23, Z+1	; 0x01
    1614:	ce 01       	movw	r24, r28
    1616:	6a d6       	rcall	.+3284   	; 0x22ec <strcmp>
    1618:	89 2b       	or	r24, r25
    161a:	39 f4       	brne	.+14     	; 0x162a <backgroundprocess+0xcc>
				{
					locked = 1;
    161c:	60 92 06 02 	sts	0x0206, r6	; 0x800206 <locked>
    1620:	70 92 07 02 	sts	0x0207, r7	; 0x800207 <locked+0x1>
					lock();
    1624:	00 dc       	rcall	.-2048   	; 0xe26 <lock>
    1626:	86 2c       	mov	r8, r6
					lock_flag = 1;
    1628:	97 2c       	mov	r9, r7
    162a:	a8 96       	adiw	r28, 0x28	; 40
    162c:	ce 15       	cp	r28, r14
		for (int i=0; i<4; i++)
		{
			variable2 = getNearbyDeviceAddress(i+1);
			get_address[i] = malloc(strlen(variable2)+1); //0 terminering
			strcpy(get_address[i],variable2);
			for (int j=0; j<4; j++)
    162e:	df 05       	cpc	r29, r15
    1630:	71 f7       	brne	.-36     	; 0x160e <backgroundprocess+0xb0>
    1632:	f2 e0       	ldi	r31, 0x02	; 2
    1634:	af 0e       	add	r10, r31
    1636:	b1 1c       	adc	r11, r1
    1638:	84 e0       	ldi	r24, 0x04	; 4
	if(locked == 2 && idle_state == 0)
	{
		drawletters("UPDATE", start_position_x,start_position_y+90,0,0,0);
		int lock_flag = 0;
		nearbyDevicesScan();
		for (int i=0; i<4; i++)
    163a:	c8 16       	cp	r12, r24
    163c:	d1 04       	cpc	r13, r1
    163e:	69 f6       	brne	.-102    	; 0x15da <backgroundprocess+0x7c>
    1640:	89 28       	or	r8, r9
					lock();
					lock_flag = 1;
				}
			}
		}
		if (lock_flag == 0)
    1642:	29 f4       	brne	.+10     	; 0x164e <backgroundprocess+0xf0>
		{
			locked = 0;
    1644:	10 92 07 02 	sts	0x0207, r1	; 0x800207 <locked+0x1>
    1648:	10 92 06 02 	sts	0x0206, r1	; 0x800206 <locked>
			lock();
    164c:	ec db       	rcall	.-2088   	; 0xe26 <lock>
    164e:	82 e0       	ldi	r24, 0x02	; 2
		}
	locked = 2;
    1650:	90 e0       	ldi	r25, 0x00	; 0
    1652:	90 93 07 02 	sts	0x0207, r25	; 0x800207 <locked+0x1>
    1656:	80 93 06 02 	sts	0x0206, r24	; 0x800206 <locked>
    165a:	40 91 08 02 	lds	r20, 0x0208	; 0x800208 <start_position_y>
	drawletters("UPDATE", start_position_x,start_position_y+90,31,63,31);
    165e:	50 91 09 02 	lds	r21, 0x0209	; 0x800209 <start_position_y+0x1>
    1662:	46 5a       	subi	r20, 0xA6	; 166
    1664:	5f 4f       	sbci	r21, 0xFF	; 255
    1666:	60 91 0a 02 	lds	r22, 0x020A	; 0x80020a <start_position_x>
    166a:	70 91 0b 02 	lds	r23, 0x020B	; 0x80020b <start_position_x+0x1>
    166e:	0f 2e       	mov	r0, r31
    1670:	ff e1       	ldi	r31, 0x1F	; 31
    1672:	ef 2e       	mov	r14, r31
    1674:	f0 2d       	mov	r31, r0
    1676:	0f e3       	ldi	r16, 0x3F	; 63
    1678:	2f e1       	ldi	r18, 0x1F	; 31
    167a:	88 e2       	ldi	r24, 0x28	; 40
    167c:	93 e0       	ldi	r25, 0x03	; 3
    167e:	76 d2       	rcall	.+1260   	; 0x1b6c <drawletters>
    1680:	df 91       	pop	r29
	}
	
    1682:	cf 91       	pop	r28
    1684:	1f 91       	pop	r17
    1686:	0f 91       	pop	r16
    1688:	ff 90       	pop	r15
    168a:	ef 90       	pop	r14
    168c:	df 90       	pop	r13
    168e:	cf 90       	pop	r12
    1690:	bf 90       	pop	r11
    1692:	af 90       	pop	r10
    1694:	9f 90       	pop	r9
    1696:	8f 90       	pop	r8
    1698:	7f 90       	pop	r7
    169a:	6f 90       	pop	r6
    169c:	08 95       	ret

0000169e <WriteCommand>:
    169e:	88 b9       	out	0x08, r24	; 8
	InterfacePixelFormat(0b00000101);
}

void DisplayOff()
{
	WriteCommand(0x28);
    16a0:	5f 98       	cbi	0x0b, 7	; 11
    16a2:	a1 98       	cbi	0x14, 1	; 20
    16a4:	a2 98       	cbi	0x14, 2	; 20
    16a6:	00 00       	nop
    16a8:	a2 9a       	sbi	0x14, 2	; 20
    16aa:	00 00       	nop
    16ac:	08 95       	ret

000016ae <WriteData>:
    16ae:	92 b9       	out	0x02, r25	; 2
    16b0:	88 b9       	out	0x08, r24	; 8
    16b2:	5f 9a       	sbi	0x0b, 7	; 11
    16b4:	a1 98       	cbi	0x14, 1	; 20
    16b6:	a2 98       	cbi	0x14, 2	; 20
    16b8:	00 00       	nop
    16ba:	a2 9a       	sbi	0x14, 2	; 20
    16bc:	00 00       	nop
    16be:	08 95       	ret

000016c0 <DisplayOn>:
}

void DisplayOn()
{
	WriteCommand(0x29);
    16c0:	89 e2       	ldi	r24, 0x29	; 41
    16c2:	90 e0       	ldi	r25, 0x00	; 0
    16c4:	ec cf       	rjmp	.-40     	; 0x169e <WriteCommand>
    16c6:	08 95       	ret

000016c8 <SleepOut>:
}

void SleepOut()
{
	WriteCommand(0x11);
    16c8:	81 e1       	ldi	r24, 0x11	; 17
    16ca:	90 e0       	ldi	r25, 0x00	; 0
    16cc:	e8 cf       	rjmp	.-48     	; 0x169e <WriteCommand>
    16ce:	08 95       	ret

000016d0 <MemoryAccessControl>:
}

void MemoryAccessControl(unsigned char parameter)
{
    16d0:	cf 93       	push	r28
    16d2:	c8 2f       	mov	r28, r24
	WriteCommand(0x36);
    16d4:	86 e3       	ldi	r24, 0x36	; 54
    16d6:	90 e0       	ldi	r25, 0x00	; 0
    16d8:	e2 df       	rcall	.-60     	; 0x169e <WriteCommand>
	WriteData(parameter);
    16da:	8c 2f       	mov	r24, r28
    16dc:	90 e0       	ldi	r25, 0x00	; 0
    16de:	e7 df       	rcall	.-50     	; 0x16ae <WriteData>
}
    16e0:	cf 91       	pop	r28
    16e2:	08 95       	ret

000016e4 <InterfacePixelFormat>:

void InterfacePixelFormat(unsigned char parameter)
{
    16e4:	cf 93       	push	r28
    16e6:	c8 2f       	mov	r28, r24
	WriteCommand(0x3A);
    16e8:	8a e3       	ldi	r24, 0x3A	; 58
    16ea:	90 e0       	ldi	r25, 0x00	; 0
    16ec:	d8 df       	rcall	.-80     	; 0x169e <WriteCommand>
	WriteData(parameter);
    16ee:	8c 2f       	mov	r24, r28
    16f0:	90 e0       	ldi	r25, 0x00	; 0
    16f2:	dd df       	rcall	.-70     	; 0x16ae <WriteData>
}
    16f4:	cf 91       	pop	r28
    16f6:	08 95       	ret

000016f8 <DisplayInit>:

// Initializes (resets) the display
// Initializes (resets) the display
void DisplayInit()
{
	DDRG |= 0b00000111;
    16f8:	83 b3       	in	r24, 0x13	; 19
    16fa:	87 60       	ori	r24, 0x07	; 7
    16fc:	83 bb       	out	0x13, r24	; 19
	DDRD |= 0b10000000;
    16fe:	57 9a       	sbi	0x0a, 7	; 10
	
	DDRA = 0xFF;
    1700:	8f ef       	ldi	r24, 0xFF	; 255
    1702:	81 b9       	out	0x01, r24	; 1
	DDRC = 0xFF;
    1704:	87 b9       	out	0x07, r24	; 7
	
	PORTG |= 0b00000111;
    1706:	84 b3       	in	r24, 0x14	; 20
    1708:	87 60       	ori	r24, 0x07	; 7
    170a:	84 bb       	out	0x14, r24	; 20
	PORTD |= 0b10000000;
    170c:	5f 9a       	sbi	0x0b, 7	; 11
	
	RST_PORT &= ~(1<<RST_BIT);
    170e:	a0 98       	cbi	0x14, 0	; 20
	#else
		//round up by default
		__ticks_dc = (uint32_t)(ceil(fabs(__tmp)));
	#endif

	__builtin_avr_delay_cycles(__ticks_dc);
    1710:	2f ef       	ldi	r18, 0xFF	; 255
    1712:	89 e6       	ldi	r24, 0x69	; 105
    1714:	98 e1       	ldi	r25, 0x18	; 24
    1716:	21 50       	subi	r18, 0x01	; 1
    1718:	80 40       	sbci	r24, 0x00	; 0
    171a:	90 40       	sbci	r25, 0x00	; 0
    171c:	e1 f7       	brne	.-8      	; 0x1716 <DisplayInit+0x1e>
    171e:	00 c0       	rjmp	.+0      	; 0x1720 <DisplayInit+0x28>
    1720:	00 00       	nop
	
	_delay_ms(500);
	
	RST_PORT |= (1<<RST_BIT);
    1722:	a0 9a       	sbi	0x14, 0	; 20
    1724:	2f ef       	ldi	r18, 0xFF	; 255
    1726:	88 e5       	ldi	r24, 0x58	; 88
    1728:	96 e0       	ldi	r25, 0x06	; 6
    172a:	21 50       	subi	r18, 0x01	; 1
    172c:	80 40       	sbci	r24, 0x00	; 0
    172e:	90 40       	sbci	r25, 0x00	; 0
    1730:	e1 f7       	brne	.-8      	; 0x172a <DisplayInit+0x32>
    1732:	00 c0       	rjmp	.+0      	; 0x1734 <DisplayInit+0x3c>
    1734:	00 00       	nop
	_delay_ms(130);
	
	SleepOut();
    1736:	c8 df       	rcall	.-112    	; 0x16c8 <SleepOut>
	
	DisplayOn();
    1738:	c3 df       	rcall	.-122    	; 0x16c0 <DisplayOn>
	
	MemoryAccessControl(0b00001000);
    173a:	88 e0       	ldi	r24, 0x08	; 8
    173c:	c9 df       	rcall	.-110    	; 0x16d0 <MemoryAccessControl>
	
	InterfacePixelFormat(0b00000101);
    173e:	85 e0       	ldi	r24, 0x05	; 5
    1740:	d1 cf       	rjmp	.-94     	; 0x16e4 <InterfacePixelFormat>
    1742:	08 95       	ret

00001744 <MemoryWrite>:
    1744:	8c e2       	ldi	r24, 0x2C	; 44
	WriteData(parameter);
}

void MemoryWrite()
{
	WriteCommand(0x2C);
    1746:	90 e0       	ldi	r25, 0x00	; 0
    1748:	aa cf       	rjmp	.-172    	; 0x169e <WriteCommand>
    174a:	08 95       	ret

0000174c <WritePixel>:
}

// Red 0-31, Green 0-63, Blue 0-31
void WritePixel(unsigned char Red, unsigned char Green, unsigned char Blue)
{
	WriteData((Red<<11) | (Green<<5) | Blue);
    174c:	90 e2       	ldi	r25, 0x20	; 32
    174e:	69 9f       	mul	r22, r25
    1750:	b0 01       	movw	r22, r0
    1752:	11 24       	eor	r1, r1
    1754:	64 2b       	or	r22, r20
    1756:	90 e0       	ldi	r25, 0x00	; 0
    1758:	98 2f       	mov	r25, r24
    175a:	88 27       	eor	r24, r24
    175c:	99 0f       	add	r25, r25
    175e:	99 0f       	add	r25, r25
    1760:	99 0f       	add	r25, r25
    1762:	86 2b       	or	r24, r22
    1764:	97 2b       	or	r25, r23
    1766:	a3 cf       	rjmp	.-186    	; 0x16ae <WriteData>
    1768:	08 95       	ret

0000176a <SetColumnAddress>:
}

// Set Column Address (0-239), Start > End
void SetColumnAddress(unsigned int Start, unsigned int End)
{
    176a:	0f 93       	push	r16
    176c:	1f 93       	push	r17
    176e:	cf 93       	push	r28
    1770:	df 93       	push	r29
    1772:	08 2f       	mov	r16, r24
    1774:	d9 2f       	mov	r29, r25
    1776:	16 2f       	mov	r17, r22
    1778:	c7 2f       	mov	r28, r23
	WriteCommand(0x2A);
    177a:	8a e2       	ldi	r24, 0x2A	; 42
    177c:	90 e0       	ldi	r25, 0x00	; 0
    177e:	8f df       	rcall	.-226    	; 0x169e <WriteCommand>
	WriteData(Start>>8);
    1780:	8d 2f       	mov	r24, r29
    1782:	90 e0       	ldi	r25, 0x00	; 0
    1784:	94 df       	rcall	.-216    	; 0x16ae <WriteData>
	WriteData(Start);
    1786:	80 2f       	mov	r24, r16
    1788:	9d 2f       	mov	r25, r29
    178a:	91 df       	rcall	.-222    	; 0x16ae <WriteData>
	WriteData(End>>8);
    178c:	8c 2f       	mov	r24, r28
    178e:	90 e0       	ldi	r25, 0x00	; 0
    1790:	8e df       	rcall	.-228    	; 0x16ae <WriteData>
	WriteData(End);
    1792:	81 2f       	mov	r24, r17
    1794:	9c 2f       	mov	r25, r28
    1796:	8b df       	rcall	.-234    	; 0x16ae <WriteData>
    1798:	df 91       	pop	r29
}
    179a:	cf 91       	pop	r28
    179c:	1f 91       	pop	r17
    179e:	0f 91       	pop	r16
    17a0:	08 95       	ret

000017a2 <SetPageAddress>:
    17a2:	0f 93       	push	r16

// Set Page Address (0-319), Start > End
void SetPageAddress(unsigned int Start, unsigned int End)
{
    17a4:	1f 93       	push	r17
    17a6:	cf 93       	push	r28
    17a8:	df 93       	push	r29
    17aa:	08 2f       	mov	r16, r24
    17ac:	d9 2f       	mov	r29, r25
    17ae:	16 2f       	mov	r17, r22
    17b0:	c7 2f       	mov	r28, r23
	WriteCommand(0x2B);
    17b2:	8b e2       	ldi	r24, 0x2B	; 43
    17b4:	90 e0       	ldi	r25, 0x00	; 0
    17b6:	73 df       	rcall	.-282    	; 0x169e <WriteCommand>
	WriteData(Start>>8);
    17b8:	8d 2f       	mov	r24, r29
    17ba:	90 e0       	ldi	r25, 0x00	; 0
    17bc:	78 df       	rcall	.-272    	; 0x16ae <WriteData>
	WriteData(Start);
    17be:	80 2f       	mov	r24, r16
    17c0:	9d 2f       	mov	r25, r29
    17c2:	75 df       	rcall	.-278    	; 0x16ae <WriteData>
	WriteData(End>>8);
    17c4:	8c 2f       	mov	r24, r28
    17c6:	90 e0       	ldi	r25, 0x00	; 0
    17c8:	72 df       	rcall	.-284    	; 0x16ae <WriteData>
	WriteData(End);
    17ca:	81 2f       	mov	r24, r17
    17cc:	9c 2f       	mov	r25, r28
    17ce:	6f df       	rcall	.-290    	; 0x16ae <WriteData>
    17d0:	df 91       	pop	r29
}
    17d2:	cf 91       	pop	r28
    17d4:	1f 91       	pop	r17
    17d6:	0f 91       	pop	r16
    17d8:	08 95       	ret

000017da <FillRectangle>:
    17da:	4f 92       	push	r4

void FillRectangle(unsigned int StartX, unsigned int StartY, unsigned int Width, unsigned int Height, unsigned char Red, unsigned char Green, unsigned char Blue)
{
    17dc:	5f 92       	push	r5
    17de:	6f 92       	push	r6
    17e0:	7f 92       	push	r7
    17e2:	8f 92       	push	r8
    17e4:	9f 92       	push	r9
    17e6:	af 92       	push	r10
    17e8:	bf 92       	push	r11
    17ea:	cf 92       	push	r12
    17ec:	ef 92       	push	r14
    17ee:	0f 93       	push	r16
    17f0:	3b 01       	movw	r6, r22
    17f2:	4a 01       	movw	r8, r20
    17f4:	59 01       	movw	r10, r18
	SetPageAddress(StartX,StartX+Width);
    17f6:	bc 01       	movw	r22, r24
    17f8:	64 0f       	add	r22, r20
    17fa:	75 1f       	adc	r23, r21
    17fc:	d2 df       	rcall	.-92     	; 0x17a2 <SetPageAddress>
	SetColumnAddress(StartY,StartY+Height);
    17fe:	b3 01       	movw	r22, r6
    1800:	6a 0d       	add	r22, r10
    1802:	7b 1d       	adc	r23, r11
    1804:	c3 01       	movw	r24, r6
	MemoryWrite();
    1806:	b1 df       	rcall	.-158    	; 0x176a <SetColumnAddress>
	for(unsigned long i = 0; i<((unsigned long)Width*Height); i++)
    1808:	9d df       	rcall	.-198    	; 0x1744 <MemoryWrite>
    180a:	94 01       	movw	r18, r8
    180c:	d5 01       	movw	r26, r10
    180e:	07 d4       	rcall	.+2062   	; 0x201e <__umulhisi3>
    1810:	2b 01       	movw	r4, r22
    1812:	3c 01       	movw	r6, r24
    1814:	67 2b       	or	r22, r23
    1816:	68 2b       	or	r22, r24
    1818:	69 2b       	or	r22, r25
    181a:	89 f0       	breq	.+34     	; 0x183e <FillRectangle+0x64>
    181c:	81 2c       	mov	r8, r1
    181e:	91 2c       	mov	r9, r1
	{
		WritePixel(Red,Green,Blue);	
    1820:	54 01       	movw	r10, r8
    1822:	4c 2d       	mov	r20, r12
    1824:	6e 2d       	mov	r22, r14
    1826:	80 2f       	mov	r24, r16
    1828:	91 df       	rcall	.-222    	; 0x174c <WritePixel>
void FillRectangle(unsigned int StartX, unsigned int StartY, unsigned int Width, unsigned int Height, unsigned char Red, unsigned char Green, unsigned char Blue)
{
	SetPageAddress(StartX,StartX+Width);
	SetColumnAddress(StartY,StartY+Height);
	MemoryWrite();
	for(unsigned long i = 0; i<((unsigned long)Width*Height); i++)
    182a:	8f ef       	ldi	r24, 0xFF	; 255
    182c:	88 1a       	sub	r8, r24
    182e:	98 0a       	sbc	r9, r24
    1830:	a8 0a       	sbc	r10, r24
    1832:	b8 0a       	sbc	r11, r24
    1834:	84 14       	cp	r8, r4
    1836:	95 04       	cpc	r9, r5
    1838:	a6 04       	cpc	r10, r6
    183a:	b7 04       	cpc	r11, r7
    183c:	91 f7       	brne	.-28     	; 0x1822 <FillRectangle+0x48>
	{
		WritePixel(Red,Green,Blue);	
	}
	
}
    183e:	0f 91       	pop	r16
    1840:	ef 90       	pop	r14
    1842:	cf 90       	pop	r12
    1844:	bf 90       	pop	r11
    1846:	af 90       	pop	r10
    1848:	9f 90       	pop	r9
    184a:	8f 90       	pop	r8
    184c:	7f 90       	pop	r7
    184e:	6f 90       	pop	r6
    1850:	5f 90       	pop	r5
    1852:	4f 90       	pop	r4
    1854:	08 95       	ret

00001856 <setBaggroundPixel>:
	
}

void setBaggroundPixel(int red, int green, int blue)
{
	backgoundred = red;
    1856:	90 93 11 02 	sts	0x0211, r25	; 0x800211 <backgoundred+0x1>
    185a:	80 93 10 02 	sts	0x0210, r24	; 0x800210 <backgoundred>
	backgoundgreen = green;
    185e:	70 93 0f 02 	sts	0x020F, r23	; 0x80020f <backgoundgreen+0x1>
    1862:	60 93 0e 02 	sts	0x020E, r22	; 0x80020e <backgoundgreen>
	backgoundblue = blue;
    1866:	50 93 0d 02 	sts	0x020D, r21	; 0x80020d <backgoundblue+0x1>
    186a:	40 93 0c 02 	sts	0x020C, r20	; 0x80020c <backgoundblue>
    186e:	08 95       	ret

00001870 <drawXletter>:
}

void drawXletter(const uint8_t bitmap[],int length,int count,int startx,int starty, int letter, int modulus,unsigned char Red, unsigned char Green, unsigned char Blue)
{
    1870:	2f 92       	push	r2
    1872:	3f 92       	push	r3
    1874:	4f 92       	push	r4
    1876:	5f 92       	push	r5
    1878:	6f 92       	push	r6
    187a:	7f 92       	push	r7
    187c:	8f 92       	push	r8
    187e:	9f 92       	push	r9
    1880:	af 92       	push	r10
    1882:	bf 92       	push	r11
    1884:	cf 92       	push	r12
    1886:	df 92       	push	r13
    1888:	ef 92       	push	r14
    188a:	ff 92       	push	r15
    188c:	0f 93       	push	r16
    188e:	1f 93       	push	r17
    1890:	cf 93       	push	r28
    1892:	df 93       	push	r29
    1894:	cd b7       	in	r28, 0x3d	; 61
    1896:	de b7       	in	r29, 0x3e	; 62
    1898:	64 97       	sbiw	r28, 0x14	; 20
    189a:	0f b6       	in	r0, 0x3f	; 63
    189c:	f8 94       	cli
    189e:	de bf       	out	0x3e, r29	; 62
    18a0:	0f be       	out	0x3f, r0	; 63
    18a2:	cd bf       	out	0x3d, r28	; 61
    18a4:	78 8b       	std	Y+16, r23	; 0x10
    18a6:	6f 87       	std	Y+15, r22	; 0x0f
    18a8:	5e 87       	std	Y+14, r21	; 0x0e
    18aa:	4d 87       	std	Y+13, r20	; 0x0d
    18ac:	3c 83       	std	Y+4, r19	; 0x04
    18ae:	2b 83       	std	Y+3, r18	; 0x03
    18b0:	28 01       	movw	r4, r16
    18b2:	16 01       	movw	r2, r12
    18b4:	b8 2c       	mov	r11, r8
	int startpage = startx; //set startpage
	int stoppage= startx+7; //set stoppage
    18b6:	29 5f       	subi	r18, 0xF9	; 249
    18b8:	3f 4f       	sbci	r19, 0xFF	; 255
	int colum = starty; //set colum
	for (int g=0;g<count;g++)
    18ba:	14 16       	cp	r1, r20
    18bc:	15 06       	cpc	r1, r21
    18be:	0c f0       	brlt	.+2      	; 0x18c2 <drawXletter+0x52>
    18c0:	7e c0       	rjmp	.+252    	; 0x19be <drawXletter+0x14e>
			{WritePixel(backgoundred, backgoundgreen, backgoundblue);}
		}
		startpage = stoppage+1; //set new startpage +1 for not writing to the same bit.
		stoppage = stoppage+8; //set new stoppage +7 for ending the byte, +1 because off startpage.
		
		if(stoppage >= length*8+startx) //check length of character
    18c2:	ab 01       	movw	r20, r22
    18c4:	44 0f       	add	r20, r20
    18c6:	55 1f       	adc	r21, r21
    18c8:	44 0f       	add	r20, r20
    18ca:	55 1f       	adc	r21, r21
    18cc:	44 0f       	add	r20, r20
    18ce:	55 1f       	adc	r21, r21
    18d0:	6b 81       	ldd	r22, Y+3	; 0x03
    18d2:	7c 81       	ldd	r23, Y+4	; 0x04
    18d4:	64 0f       	add	r22, r20
    18d6:	75 1f       	adc	r23, r21
    18d8:	7e 83       	std	Y+6, r23	; 0x06
    18da:	6d 83       	std	Y+5, r22	; 0x05
    18dc:	6c 01       	movw	r12, r24
    18de:	ce 0c       	add	r12, r14
    18e0:	df 1c       	adc	r13, r15
    18e2:	ed 85       	ldd	r30, Y+13	; 0x0d
    18e4:	fe 85       	ldd	r31, Y+14	; 0x0e
    18e6:	ee 0e       	add	r14, r30
    18e8:	ff 1e       	adc	r15, r31
    18ea:	ac 01       	movw	r20, r24
    18ec:	4e 0d       	add	r20, r14
    18ee:	5f 1d       	adc	r21, r15
    18f0:	58 87       	std	Y+8, r21	; 0x08
    18f2:	4f 83       	std	Y+7, r20	; 0x07
    18f4:	39 01       	movw	r6, r18
    18f6:	8b 81       	ldd	r24, Y+3	; 0x03
    18f8:	9c 81       	ldd	r25, Y+4	; 0x04
		SetPageAddress(startpage,stoppage);
		SetColumnAddress(colum,colum);
		MemoryWrite();
		for (int i=0; i<8; i++)
		{
			if((bitmap[g+letter] & (0b10000000>>i)) != 0) //check for bit in array
    18fa:	68 94       	set
    18fc:	ee 24       	eor	r14, r14
    18fe:	e7 f8       	bld	r14, 7
    1900:	f1 2c       	mov	r15, r1
			{WritePixel(Red,Green,Blue);}
			else
			{WritePixel(backgoundred, backgoundgreen, backgoundblue);}
    1902:	0f 2e       	mov	r0, r31
    1904:	f0 e1       	ldi	r31, 0x10	; 16
    1906:	8f 2e       	mov	r8, r31
    1908:	f2 e0       	ldi	r31, 0x02	; 2
    190a:	9f 2e       	mov	r9, r31
    190c:	f0 2d       	mov	r31, r0
		
		if(stoppage >= length*8+startx) //check length of character
		{
			colum++; // next colum
			startpage = startx; //reset startpage
			stoppage = startpage+7; //reset stoppage
    190e:	29 87       	std	Y+9, r18	; 0x09
    1910:	3a 87       	std	Y+10, r19	; 0x0a
		stoppage = stoppage+8; //set new stoppage +7 for ending the byte, +1 because off startpage.
		
		if(stoppage >= length*8+startx) //check length of character
		{
			colum++; // next colum
			startpage = startx; //reset startpage
    1912:	5b 81       	ldd	r21, Y+3	; 0x03
    1914:	5b 87       	std	Y+11, r21	; 0x0b
    1916:	6c 81       	ldd	r22, Y+4	; 0x04
    1918:	6c 87       	std	Y+12, r22	; 0x0c
    191a:	1a 8b       	std	Y+18, r17	; 0x12
    191c:	09 8b       	std	Y+17, r16	; 0x11
    191e:	3c 8a       	std	Y+20, r3	; 0x14
    1920:	2b 8a       	std	Y+19, r2	; 0x13
    1922:	5a 2c       	mov	r5, r10
    1924:	3b 2c       	mov	r3, r11
    1926:	58 01       	movw	r10, r16
	int startpage = startx; //set startpage
	int stoppage= startx+7; //set stoppage
	int colum = starty; //set colum
	for (int g=0;g<count;g++)
	{
		SetPageAddress(startpage,stoppage);
    1928:	b3 01       	movw	r22, r6
    192a:	3b df       	rcall	.-394    	; 0x17a2 <SetPageAddress>
		SetColumnAddress(colum,colum);
    192c:	b5 01       	movw	r22, r10
    192e:	c5 01       	movw	r24, r10
		MemoryWrite();
    1930:	1c df       	rcall	.-456    	; 0x176a <SetColumnAddress>
    1932:	08 df       	rcall	.-496    	; 0x1744 <MemoryWrite>
		for (int i=0; i<8; i++)
    1934:	00 e0       	ldi	r16, 0x00	; 0
    1936:	10 e0       	ldi	r17, 0x00	; 0
    1938:	4a a4       	ldd	r4, Y+42	; 0x2a
		{
			if((bitmap[g+letter] & (0b10000000>>i)) != 0) //check for bit in array
    193a:	f6 01       	movw	r30, r12
    193c:	80 81       	ld	r24, Z
    193e:	28 2f       	mov	r18, r24
    1940:	30 e0       	ldi	r19, 0x00	; 0
    1942:	c7 01       	movw	r24, r14
    1944:	00 2e       	mov	r0, r16
    1946:	02 c0       	rjmp	.+4      	; 0x194c <drawXletter+0xdc>
    1948:	95 95       	asr	r25
    194a:	87 95       	ror	r24
    194c:	0a 94       	dec	r0
    194e:	e2 f7       	brpl	.-8      	; 0x1948 <drawXletter+0xd8>
    1950:	82 23       	and	r24, r18
    1952:	93 23       	and	r25, r19
    1954:	89 2b       	or	r24, r25
    1956:	29 f0       	breq	.+10     	; 0x1962 <drawXletter+0xf2>
			{WritePixel(Red,Green,Blue);}
    1958:	44 2d       	mov	r20, r4
    195a:	63 2d       	mov	r22, r3
    195c:	85 2d       	mov	r24, r5
    195e:	f6 de       	rcall	.-532    	; 0x174c <WritePixel>
    1960:	09 c0       	rjmp	.+18     	; 0x1974 <drawXletter+0x104>
			else
			{WritePixel(backgoundred, backgoundgreen, backgoundblue);}
    1962:	ec e0       	ldi	r30, 0x0C	; 12
    1964:	f2 e0       	ldi	r31, 0x02	; 2
    1966:	40 81       	ld	r20, Z
    1968:	ee e0       	ldi	r30, 0x0E	; 14
    196a:	f2 e0       	ldi	r31, 0x02	; 2
    196c:	60 81       	ld	r22, Z
    196e:	f4 01       	movw	r30, r8
    1970:	80 81       	ld	r24, Z
    1972:	ec de       	rcall	.-552    	; 0x174c <WritePixel>
	for (int g=0;g<count;g++)
	{
		SetPageAddress(startpage,stoppage);
		SetColumnAddress(colum,colum);
		MemoryWrite();
		for (int i=0; i<8; i++)
    1974:	0f 5f       	subi	r16, 0xFF	; 255
    1976:	1f 4f       	sbci	r17, 0xFF	; 255
    1978:	08 30       	cpi	r16, 0x08	; 8
    197a:	11 05       	cpc	r17, r1
    197c:	f1 f6       	brne	.-68     	; 0x193a <drawXletter+0xca>
			{WritePixel(Red,Green,Blue);}
			else
			{WritePixel(backgoundred, backgoundgreen, backgoundblue);}
		}
		startpage = stoppage+1; //set new startpage +1 for not writing to the same bit.
		stoppage = stoppage+8; //set new stoppage +7 for ending the byte, +1 because off startpage.
    197e:	93 01       	movw	r18, r6
    1980:	28 5f       	subi	r18, 0xF8	; 248
    1982:	3f 4f       	sbci	r19, 0xFF	; 255
		
		if(stoppage >= length*8+startx) //check length of character
    1984:	4d 81       	ldd	r20, Y+5	; 0x05
    1986:	5e 81       	ldd	r21, Y+6	; 0x06
    1988:	24 17       	cp	r18, r20
    198a:	35 07       	cpc	r19, r21
    198c:	24 f4       	brge	.+8      	; 0x1996 <drawXletter+0x126>
			if((bitmap[g+letter] & (0b10000000>>i)) != 0) //check for bit in array
			{WritePixel(Red,Green,Blue);}
			else
			{WritePixel(backgoundred, backgoundgreen, backgoundblue);}
		}
		startpage = stoppage+1; //set new startpage +1 for not writing to the same bit.
    198e:	c3 01       	movw	r24, r6
    1990:	01 96       	adiw	r24, 0x01	; 1
		stoppage = stoppage+8; //set new stoppage +7 for ending the byte, +1 because off startpage.
    1992:	39 01       	movw	r6, r18
    1994:	07 c0       	rjmp	.+14     	; 0x19a4 <drawXletter+0x134>
		
		if(stoppage >= length*8+startx) //check length of character
		{
			colum++; // next colum
    1996:	5f ef       	ldi	r21, 0xFF	; 255
    1998:	a5 1a       	sub	r10, r21
    199a:	b5 0a       	sbc	r11, r21
			startpage = startx; //reset startpage
			stoppage = startpage+7; //reset stoppage
    199c:	69 84       	ldd	r6, Y+9	; 0x09
    199e:	7a 84       	ldd	r7, Y+10	; 0x0a
		stoppage = stoppage+8; //set new stoppage +7 for ending the byte, +1 because off startpage.
		
		if(stoppage >= length*8+startx) //check length of character
		{
			colum++; // next colum
			startpage = startx; //reset startpage
    19a0:	8b 85       	ldd	r24, Y+11	; 0x0b
    19a2:	9c 85       	ldd	r25, Y+12	; 0x0c
    19a4:	6f ef       	ldi	r22, 0xFF	; 255
    19a6:	c6 1a       	sub	r12, r22
    19a8:	d6 0a       	sbc	r13, r22
void drawXletter(const uint8_t bitmap[],int length,int count,int startx,int starty, int letter, int modulus,unsigned char Red, unsigned char Green, unsigned char Blue)
{
	int startpage = startx; //set startpage
	int stoppage= startx+7; //set stoppage
	int colum = starty; //set colum
	for (int g=0;g<count;g++)
    19aa:	ef 81       	ldd	r30, Y+7	; 0x07
    19ac:	f8 85       	ldd	r31, Y+8	; 0x08
    19ae:	ce 16       	cp	r12, r30
    19b0:	df 06       	cpc	r13, r31
    19b2:	09 f0       	breq	.+2      	; 0x19b6 <drawXletter+0x146>
    19b4:	b9 cf       	rjmp	.-142    	; 0x1928 <drawXletter+0xb8>
    19b6:	49 88       	ldd	r4, Y+17	; 0x11
    19b8:	5a 88       	ldd	r5, Y+18	; 0x12
    19ba:	2b 88       	ldd	r2, Y+19	; 0x13
		}
	}
	//delete old character on display
	colum = starty; //reset colum
	
	for (int i=0; i<count/length;i++)
    19bc:	3c 88       	ldd	r3, Y+20	; 0x14
    19be:	8d 85       	ldd	r24, Y+13	; 0x0d
    19c0:	9e 85       	ldd	r25, Y+14	; 0x0e
    19c2:	6f 85       	ldd	r22, Y+15	; 0x0f
    19c4:	78 89       	ldd	r23, Y+16	; 0x10
    19c6:	f6 d2       	rcall	.+1516   	; 0x1fb4 <__divmodhi4>
    19c8:	16 16       	cp	r1, r22
    19ca:	17 06       	cpc	r1, r23
    19cc:	0c f0       	brlt	.+2      	; 0x19d0 <drawXletter+0x160>
    19ce:	4e c0       	rjmp	.+156    	; 0x1a6c <drawXletter+0x1fc>
	{
		if(modulus == 0)
		{modulus = 8;}
		SetPageAddress(startx+(length*8-(8-modulus)),startx+(length*8-(8-modulus))+7); //set white, where the character stopped
    19d0:	6f 84       	ldd	r6, Y+15	; 0x0f
    19d2:	78 88       	ldd	r7, Y+16	; 0x10
    19d4:	66 0c       	add	r6, r6
    19d6:	77 1c       	adc	r7, r7
    19d8:	66 0c       	add	r6, r6
    19da:	77 1c       	adc	r7, r7
    19dc:	66 0c       	add	r6, r6
    19de:	77 1c       	adc	r7, r7
    19e0:	9b 01       	movw	r18, r22
    19e2:	24 0d       	add	r18, r4
    19e4:	35 1d       	adc	r19, r5
    19e6:	3a 83       	std	Y+2, r19	; 0x02
    19e8:	29 83       	std	Y+1, r18	; 0x01
	colum = starty; //reset colum
	
	for (int i=0; i<count/length;i++)
	{
		if(modulus == 0)
		{modulus = 8;}
    19ea:	68 94       	set
    19ec:	88 24       	eor	r8, r8
    19ee:	83 f8       	bld	r8, 3
    19f0:	91 2c       	mov	r9, r1
		SetPageAddress(startx+(length*8-(8-modulus)),startx+(length*8-(8-modulus))+7); //set white, where the character stopped
		SetColumnAddress(colum,colum);
		MemoryWrite();
		for (int j=0; j<8; j++)
		{WritePixel(backgoundred, backgoundgreen, backgoundblue);}
    19f2:	0f 2e       	mov	r0, r31
    19f4:	fc e0       	ldi	r31, 0x0C	; 12
    19f6:	af 2e       	mov	r10, r31
    19f8:	f2 e0       	ldi	r31, 0x02	; 2
    19fa:	bf 2e       	mov	r11, r31
    19fc:	f0 2d       	mov	r31, r0
    19fe:	0f 2e       	mov	r0, r31
    1a00:	fe e0       	ldi	r31, 0x0E	; 14
    1a02:	cf 2e       	mov	r12, r31
    1a04:	f2 e0       	ldi	r31, 0x02	; 2
    1a06:	df 2e       	mov	r13, r31
    1a08:	f0 2d       	mov	r31, r0
    1a0a:	0f 2e       	mov	r0, r31
    1a0c:	f0 e1       	ldi	r31, 0x10	; 16
    1a0e:	ef 2e       	mov	r14, r31
    1a10:	f2 e0       	ldi	r31, 0x02	; 2
    1a12:	ff 2e       	mov	r15, r31
    1a14:	f0 2d       	mov	r31, r0
	//delete old character on display
	colum = starty; //reset colum
	
	for (int i=0; i<count/length;i++)
	{
		if(modulus == 0)
    1a16:	21 14       	cp	r2, r1
    1a18:	31 04       	cpc	r3, r1
    1a1a:	09 f4       	brne	.+2      	; 0x1a1e <drawXletter+0x1ae>
		{modulus = 8;}
    1a1c:	14 01       	movw	r2, r8
		SetPageAddress(startx+(length*8-(8-modulus)),startx+(length*8-(8-modulus))+7); //set white, where the character stopped
    1a1e:	c4 01       	movw	r24, r8
    1a20:	82 19       	sub	r24, r2
    1a22:	93 09       	sbc	r25, r3
    1a24:	a3 01       	movw	r20, r6
    1a26:	48 1b       	sub	r20, r24
    1a28:	59 0b       	sbc	r21, r25
    1a2a:	ca 01       	movw	r24, r20
    1a2c:	6b 81       	ldd	r22, Y+3	; 0x03
    1a2e:	7c 81       	ldd	r23, Y+4	; 0x04
    1a30:	86 0f       	add	r24, r22
    1a32:	97 1f       	adc	r25, r23
    1a34:	bc 01       	movw	r22, r24
    1a36:	69 5f       	subi	r22, 0xF9	; 249
		SetColumnAddress(colum,colum);
    1a38:	7f 4f       	sbci	r23, 0xFF	; 255
    1a3a:	b3 de       	rcall	.-666    	; 0x17a2 <SetPageAddress>
    1a3c:	b2 01       	movw	r22, r4
    1a3e:	c2 01       	movw	r24, r4
		MemoryWrite();
    1a40:	94 de       	rcall	.-728    	; 0x176a <SetColumnAddress>
    1a42:	80 de       	rcall	.-768    	; 0x1744 <MemoryWrite>
    1a44:	08 e0       	ldi	r16, 0x08	; 8
		for (int j=0; j<8; j++)
		{WritePixel(backgoundred, backgoundgreen, backgoundblue);}
    1a46:	10 e0       	ldi	r17, 0x00	; 0
    1a48:	f5 01       	movw	r30, r10
    1a4a:	40 81       	ld	r20, Z
    1a4c:	f6 01       	movw	r30, r12
    1a4e:	60 81       	ld	r22, Z
    1a50:	f7 01       	movw	r30, r14
    1a52:	80 81       	ld	r24, Z
    1a54:	7b de       	rcall	.-778    	; 0x174c <WritePixel>
    1a56:	01 50       	subi	r16, 0x01	; 1
    1a58:	11 09       	sbc	r17, r1
		if(modulus == 0)
		{modulus = 8;}
		SetPageAddress(startx+(length*8-(8-modulus)),startx+(length*8-(8-modulus))+7); //set white, where the character stopped
		SetColumnAddress(colum,colum);
		MemoryWrite();
		for (int j=0; j<8; j++)
    1a5a:	b1 f7       	brne	.-20     	; 0x1a48 <drawXletter+0x1d8>
		{WritePixel(backgoundred, backgoundgreen, backgoundblue);}
		colum++;
    1a5c:	ff ef       	ldi	r31, 0xFF	; 255
    1a5e:	4f 1a       	sub	r4, r31
    1a60:	5f 0a       	sbc	r5, r31
		}
	}
	//delete old character on display
	colum = starty; //reset colum
	
	for (int i=0; i<count/length;i++)
    1a62:	29 81       	ldd	r18, Y+1	; 0x01
    1a64:	3a 81       	ldd	r19, Y+2	; 0x02
    1a66:	24 15       	cp	r18, r4
    1a68:	35 05       	cpc	r19, r5
    1a6a:	a9 f6       	brne	.-86     	; 0x1a16 <drawXletter+0x1a6>
		for (int j=0; j<8; j++)
		{WritePixel(backgoundred, backgoundgreen, backgoundblue);}
		colum++;
	}
	
}
    1a6c:	64 96       	adiw	r28, 0x14	; 20
    1a6e:	0f b6       	in	r0, 0x3f	; 63
    1a70:	f8 94       	cli
    1a72:	de bf       	out	0x3e, r29	; 62
    1a74:	0f be       	out	0x3f, r0	; 63
    1a76:	cd bf       	out	0x3d, r28	; 61
    1a78:	df 91       	pop	r29
    1a7a:	cf 91       	pop	r28
    1a7c:	1f 91       	pop	r17
    1a7e:	0f 91       	pop	r16
    1a80:	ff 90       	pop	r15
    1a82:	ef 90       	pop	r14
    1a84:	df 90       	pop	r13
    1a86:	cf 90       	pop	r12
    1a88:	bf 90       	pop	r11
    1a8a:	af 90       	pop	r10
    1a8c:	9f 90       	pop	r9
    1a8e:	8f 90       	pop	r8
    1a90:	7f 90       	pop	r7
    1a92:	6f 90       	pop	r6
    1a94:	5f 90       	pop	r5
    1a96:	4f 90       	pop	r4
    1a98:	3f 90       	pop	r3
    1a9a:	2f 90       	pop	r2
    1a9c:	08 95       	ret

00001a9e <letterhelper>:
	
	_NOP();
}

void letterhelper(int numberletter, int startx, int starty,unsigned char Red, unsigned char Green, unsigned char Blue)
{
    1a9e:	8f 92       	push	r8
    1aa0:	af 92       	push	r10
    1aa2:	cf 92       	push	r12
    1aa4:	df 92       	push	r13
    1aa6:	ef 92       	push	r14
    1aa8:	ff 92       	push	r15
    1aaa:	0f 93       	push	r16
    1aac:	1f 93       	push	r17
    1aae:	cf 93       	push	r28
    1ab0:	df 93       	push	r29
    1ab2:	da 01       	movw	r26, r20
    1ab4:	3e 2d       	mov	r19, r14
	if (startx != check_x) //secure we don't overwrite the last command.
    1ab6:	40 91 a0 18 	lds	r20, 0x18A0	; 0x8018a0 <check_x>
    1aba:	50 91 a1 18 	lds	r21, 0x18A1	; 0x8018a1 <check_x+0x1>
    1abe:	46 17       	cp	r20, r22
    1ac0:	57 07       	cpc	r21, r23
    1ac2:	41 f0       	breq	.+16     	; 0x1ad4 <letterhelper+0x36>
	{
		check_x = startx;
    1ac4:	70 93 a1 18 	sts	0x18A1, r23	; 0x8018a1 <check_x+0x1>
    1ac8:	60 93 a0 18 	sts	0x18A0, r22	; 0x8018a0 <check_x>
		start_x = startx;
    1acc:	70 93 a3 18 	sts	0x18A3, r23	; 0x8018a3 <start_x+0x1>
    1ad0:	60 93 a2 18 	sts	0x18A2, r22	; 0x8018a2 <start_x>
	}
	
	numberletter = numberletter*2; //first parameter is length second is the offset
    1ad4:	88 0f       	add	r24, r24
    1ad6:	99 1f       	adc	r25, r25
	int count = array_carrier[numberletter+3]-array_carrier[numberletter+1]; //find the number of interger
    1ad8:	fc 01       	movw	r30, r24
    1ada:	ee 0f       	add	r30, r30
    1adc:	ff 1f       	adc	r31, r31
    1ade:	ef 5a       	subi	r30, 0xAF	; 175
    1ae0:	fa 4f       	sbci	r31, 0xFA	; 250
    1ae2:	e0 80       	ld	r14, Z
    1ae4:	f1 80       	ldd	r15, Z+1	; 0x01
    1ae6:	fc 01       	movw	r30, r24
    1ae8:	ee 0f       	add	r30, r30
    1aea:	ff 1f       	adc	r31, r31
    1aec:	eb 5a       	subi	r30, 0xAB	; 171
    1aee:	fa 4f       	sbci	r31, 0xFA	; 250
    1af0:	40 81       	ld	r20, Z
    1af2:	51 81       	ldd	r21, Z+1	; 0x01
    1af4:	4e 19       	sub	r20, r14
    1af6:	5f 09       	sbc	r21, r15
	unsigned int offset = array_carrier[numberletter+1]; //set the offset compared to the array
	int fixed_letter = (array_carrier[numberletter]/8); //find the length of the sign
    1af8:	88 0f       	add	r24, r24
    1afa:	99 1f       	adc	r25, r25
    1afc:	fc 01       	movw	r30, r24
    1afe:	e1 5b       	subi	r30, 0xB1	; 177
    1b00:	fa 4f       	sbci	r31, 0xFA	; 250
    1b02:	c0 81       	ld	r28, Z
    1b04:	d1 81       	ldd	r29, Z+1	; 0x01
    1b06:	be 01       	movw	r22, r28
    1b08:	76 95       	lsr	r23
    1b0a:	67 95       	ror	r22
    1b0c:	76 95       	lsr	r23
    1b0e:	67 95       	ror	r22
    1b10:	76 95       	lsr	r23
    1b12:	67 95       	ror	r22
	int modulus = array_carrier[numberletter]%8;
    1b14:	6e 01       	movw	r12, r28
    1b16:	87 e0       	ldi	r24, 0x07	; 7
    1b18:	c8 22       	and	r12, r24
    1b1a:	dd 24       	eor	r13, r13
	if (modulus>0) //getting the Rest with modulus % operator
    1b1c:	1c 14       	cp	r1, r12
    1b1e:	1d 04       	cpc	r1, r13
    1b20:	14 f4       	brge	.+4      	; 0x1b26 <letterhelper+0x88>
	{
		fixed_letter++; //add one length
    1b22:	6f 5f       	subi	r22, 0xFF	; 255
    1b24:	7f 4f       	sbci	r23, 0xFF	; 255
	}
	drawXletter(tegn,fixed_letter,count,start_x,starty, offset,modulus,Red,Green,Blue);
    1b26:	80 91 a2 18 	lds	r24, 0x18A2	; 0x8018a2 <start_x>
    1b2a:	90 91 a3 18 	lds	r25, 0x18A3	; 0x8018a3 <start_x+0x1>
    1b2e:	3f 93       	push	r19
    1b30:	80 2e       	mov	r8, r16
    1b32:	a2 2e       	mov	r10, r18
    1b34:	8d 01       	movw	r16, r26
    1b36:	9c 01       	movw	r18, r24
    1b38:	87 ec       	ldi	r24, 0xC7	; 199
    1b3a:	96 e0       	ldi	r25, 0x06	; 6
    1b3c:	99 de       	rcall	.-718    	; 0x1870 <drawXletter>
	start_x = start_x+array_carrier[numberletter]+1; //sets the new startpoint for next session
    1b3e:	80 91 a2 18 	lds	r24, 0x18A2	; 0x8018a2 <start_x>
    1b42:	90 91 a3 18 	lds	r25, 0x18A3	; 0x8018a3 <start_x+0x1>
    1b46:	01 96       	adiw	r24, 0x01	; 1
    1b48:	c8 0f       	add	r28, r24
    1b4a:	d9 1f       	adc	r29, r25
    1b4c:	d0 93 a3 18 	sts	0x18A3, r29	; 0x8018a3 <start_x+0x1>
    1b50:	c0 93 a2 18 	sts	0x18A2, r28	; 0x8018a2 <start_x>
}
    1b54:	0f 90       	pop	r0
    1b56:	df 91       	pop	r29
    1b58:	cf 91       	pop	r28
    1b5a:	1f 91       	pop	r17
    1b5c:	0f 91       	pop	r16
    1b5e:	ff 90       	pop	r15
    1b60:	ef 90       	pop	r14
    1b62:	df 90       	pop	r13
    1b64:	cf 90       	pop	r12
    1b66:	af 90       	pop	r10
    1b68:	8f 90       	pop	r8
    1b6a:	08 95       	ret

00001b6c <drawletters>:
	}
	
}

void drawletters(char str[],int startx, int starty,unsigned char Red, unsigned char Green, unsigned char Blue) 
{
    1b6c:	5f 92       	push	r5
    1b6e:	6f 92       	push	r6
    1b70:	7f 92       	push	r7
    1b72:	8f 92       	push	r8
    1b74:	9f 92       	push	r9
    1b76:	af 92       	push	r10
    1b78:	bf 92       	push	r11
    1b7a:	cf 92       	push	r12
    1b7c:	df 92       	push	r13
    1b7e:	ef 92       	push	r14
    1b80:	ff 92       	push	r15
    1b82:	0f 93       	push	r16
    1b84:	1f 93       	push	r17
    1b86:	cf 93       	push	r28
    1b88:	df 93       	push	r29
    1b8a:	cd b7       	in	r28, 0x3d	; 61
    1b8c:	de b7       	in	r29, 0x3e	; 62
    1b8e:	e2 97       	sbiw	r28, 0x32	; 50
    1b90:	0f b6       	in	r0, 0x3f	; 63
    1b92:	f8 94       	cli
    1b94:	de bf       	out	0x3e, r29	; 62
    1b96:	0f be       	out	0x3f, r0	; 63
    1b98:	cd bf       	out	0x3d, r28	; 61
    1b9a:	5b 01       	movw	r10, r22
    1b9c:	4a 01       	movw	r8, r20
    1b9e:	12 2f       	mov	r17, r18
    1ba0:	f0 2e       	mov	r15, r16
    1ba2:	5e 2c       	mov	r5, r14
	int test[25]={},i=0,j;
    1ba4:	fe 01       	movw	r30, r28
    1ba6:	31 96       	adiw	r30, 0x01	; 1
    1ba8:	22 e3       	ldi	r18, 0x32	; 50
    1baa:	df 01       	movw	r26, r30
    1bac:	1d 92       	st	X+, r1
    1bae:	2a 95       	dec	r18
    1bb0:	e9 f7       	brne	.-6      	; 0x1bac <drawletters+0x40>
	
	while(str[i]!='\0') {test[i]=str[i]; i++;}
    1bb2:	fc 01       	movw	r30, r24
    1bb4:	20 81       	ld	r18, Z
    1bb6:	22 23       	and	r18, r18
    1bb8:	c1 f1       	breq	.+112    	; 0x1c2a <drawletters+0xbe>
    1bba:	ae 01       	movw	r20, r28
    1bbc:	4f 5f       	subi	r20, 0xFF	; 255
    1bbe:	5f 4f       	sbci	r21, 0xFF	; 255
    1bc0:	6a 01       	movw	r12, r20
    1bc2:	31 96       	adiw	r30, 0x01	; 1
    1bc4:	da 01       	movw	r26, r20
    1bc6:	61 2c       	mov	r6, r1
    1bc8:	71 2c       	mov	r7, r1
    1bca:	30 e0       	ldi	r19, 0x00	; 0
    1bcc:	2d 93       	st	X+, r18
    1bce:	3d 93       	st	X+, r19
    1bd0:	5f ef       	ldi	r21, 0xFF	; 255
    1bd2:	65 1a       	sub	r6, r21
    1bd4:	75 0a       	sbc	r7, r21
    1bd6:	21 91       	ld	r18, Z+
    1bd8:	21 11       	cpse	r18, r1
    1bda:	f7 cf       	rjmp	.-18     	; 0x1bca <drawletters+0x5e>
	
	for(j=0;j<i;j++)
    1bdc:	16 14       	cp	r1, r6
    1bde:	17 04       	cpc	r1, r7
    1be0:	24 f5       	brge	.+72     	; 0x1c2a <drawletters+0xbe>
    1be2:	66 0c       	add	r6, r6
    1be4:	77 1c       	adc	r7, r7
    1be6:	81 e0       	ldi	r24, 0x01	; 1
    1be8:	90 e0       	ldi	r25, 0x00	; 0
    1bea:	8c 0f       	add	r24, r28
    1bec:	9d 1f       	adc	r25, r29
    1bee:	68 0e       	add	r6, r24
    1bf0:	79 1e       	adc	r7, r25
	{
		int not_space = test[j]-33; //convert to array from ascii
    1bf2:	d6 01       	movw	r26, r12
    1bf4:	8d 91       	ld	r24, X+
    1bf6:	9d 91       	ld	r25, X+
    1bf8:	6d 01       	movw	r12, r26
    1bfa:	81 97       	sbiw	r24, 0x21	; 33
		if (not_space != -1)
    1bfc:	8f 3f       	cpi	r24, 0xFF	; 255
    1bfe:	bf ef       	ldi	r27, 0xFF	; 255
    1c00:	9b 07       	cpc	r25, r27
    1c02:	39 f0       	breq	.+14     	; 0x1c12 <drawletters+0xa6>
		{letterhelper(not_space,startx,starty,Red,Green,Blue);}
    1c04:	e5 2c       	mov	r14, r5
    1c06:	0f 2d       	mov	r16, r15
    1c08:	21 2f       	mov	r18, r17
    1c0a:	a4 01       	movw	r20, r8
    1c0c:	b5 01       	movw	r22, r10
    1c0e:	47 df       	rcall	.-370    	; 0x1a9e <letterhelper>
    1c10:	09 c0       	rjmp	.+18     	; 0x1c24 <drawletters+0xb8>
		else
		{start_x = start_x+10;}
    1c12:	80 91 a2 18 	lds	r24, 0x18A2	; 0x8018a2 <start_x>
    1c16:	90 91 a3 18 	lds	r25, 0x18A3	; 0x8018a3 <start_x+0x1>
    1c1a:	0a 96       	adiw	r24, 0x0a	; 10
    1c1c:	90 93 a3 18 	sts	0x18A3, r25	; 0x8018a3 <start_x+0x1>
    1c20:	80 93 a2 18 	sts	0x18A2, r24	; 0x8018a2 <start_x>
{
	int test[25]={},i=0,j;
	
	while(str[i]!='\0') {test[i]=str[i]; i++;}
	
	for(j=0;j<i;j++)
    1c24:	6c 14       	cp	r6, r12
    1c26:	7d 04       	cpc	r7, r13
    1c28:	21 f7       	brne	.-56     	; 0x1bf2 <drawletters+0x86>
		if (not_space != -1)
		{letterhelper(not_space,startx,starty,Red,Green,Blue);}
		else
		{start_x = start_x+10;}
	}
	start_x = startx;
    1c2a:	b0 92 a3 18 	sts	0x18A3, r11	; 0x8018a3 <start_x+0x1>
    1c2e:	a0 92 a2 18 	sts	0x18A2, r10	; 0x8018a2 <start_x>
	return 0;
}
    1c32:	e2 96       	adiw	r28, 0x32	; 50
    1c34:	0f b6       	in	r0, 0x3f	; 63
    1c36:	f8 94       	cli
    1c38:	de bf       	out	0x3e, r29	; 62
    1c3a:	0f be       	out	0x3f, r0	; 63
    1c3c:	cd bf       	out	0x3d, r28	; 61
    1c3e:	df 91       	pop	r29
    1c40:	cf 91       	pop	r28
    1c42:	1f 91       	pop	r17
    1c44:	0f 91       	pop	r16
    1c46:	ff 90       	pop	r15
    1c48:	ef 90       	pop	r14
    1c4a:	df 90       	pop	r13
    1c4c:	cf 90       	pop	r12
    1c4e:	bf 90       	pop	r11
    1c50:	af 90       	pop	r10
    1c52:	9f 90       	pop	r9
    1c54:	8f 90       	pop	r8
    1c56:	7f 90       	pop	r7
    1c58:	6f 90       	pop	r6
    1c5a:	5f 90       	pop	r5
    1c5c:	08 95       	ret

00001c5e <main>:

int main(void)
{
	// Initialize system
	
	DisplayInit();
    1c5e:	4c dd       	rcall	.-1384   	; 0x16f8 <DisplayInit>
	TouchInit();
    1c60:	f5 d0       	rcall	.+490    	; 0x1e4c <TouchInit>
	//CountingInit();
	//
	DisplayOn();
    1c62:	2e dd       	rcall	.-1444   	; 0x16c0 <DisplayOn>
    1c64:	26 db       	rcall	.-2484   	; 0x12b2 <welcome>
	welcome();
    1c66:	2f ef       	ldi	r18, 0xFF	; 255
    1c68:	83 ed       	ldi	r24, 0xD3	; 211
    1c6a:	90 e3       	ldi	r25, 0x30	; 48
    1c6c:	21 50       	subi	r18, 0x01	; 1
    1c6e:	80 40       	sbci	r24, 0x00	; 0
    1c70:	90 40       	sbci	r25, 0x00	; 0
    1c72:	e1 f7       	brne	.-8      	; 0x1c6c <main+0xe>
    1c74:	00 c0       	rjmp	.+0      	; 0x1c76 <main+0x18>
    1c76:	00 00       	nop
    1c78:	2e e4       	ldi	r18, 0x4E	; 78
    1c7a:	48 e0       	ldi	r20, 0x08	; 8
	//Time for Bluetooth module to load its info from its chip
	_delay_ms(1000);
	
	InitUART(38400, 8, 'N');
    1c7c:	60 e0       	ldi	r22, 0x00	; 0
    1c7e:	76 e9       	ldi	r23, 0x96	; 150
    1c80:	80 e0       	ldi	r24, 0x00	; 0
    1c82:	90 e0       	ldi	r25, 0x00	; 0
    1c84:	2e d1       	rcall	.+604    	; 0x1ee2 <InitUART>
    1c86:	2f ef       	ldi	r18, 0xFF	; 255
    1c88:	89 e6       	ldi	r24, 0x69	; 105
    1c8a:	98 e1       	ldi	r25, 0x18	; 24
    1c8c:	21 50       	subi	r18, 0x01	; 1
    1c8e:	80 40       	sbci	r24, 0x00	; 0
    1c90:	90 40       	sbci	r25, 0x00	; 0
    1c92:	e1 f7       	brne	.-8      	; 0x1c8c <main+0x2e>
    1c94:	00 c0       	rjmp	.+0      	; 0x1c96 <main+0x38>
    1c96:	00 00       	nop
    1c98:	0e 94 bc 00 	call	0x178	; 0x178 <InitBluetoothModule>
	
	//Time for bluetooth module to load its info from its chip -- SSP profile
	_delay_ms(500);
	
	InitBluetoothModule();
    1c9c:	2f ef       	ldi	r18, 0xFF	; 255
    1c9e:	83 ed       	ldi	r24, 0xD3	; 211
    1ca0:	90 e3       	ldi	r25, 0x30	; 48
    1ca2:	21 50       	subi	r18, 0x01	; 1
    1ca4:	80 40       	sbci	r24, 0x00	; 0
    1ca6:	90 40       	sbci	r25, 0x00	; 0
    1ca8:	e1 f7       	brne	.-8      	; 0x1ca2 <main+0x44>
    1caa:	00 c0       	rjmp	.+0      	; 0x1cac <main+0x4e>
    1cac:	00 00       	nop
    1cae:	80 e0       	ldi	r24, 0x00	; 0
	_delay_ms(1000);
	
	
	
	// System startup
	makedisplay(0);
    1cb0:	90 e0       	ldi	r25, 0x00	; 0
    1cb2:	10 db       	rcall	.-2528   	; 0x12d4 <makedisplay>
    1cb4:	00 e0       	ldi	r16, 0x00	; 0
    1cb6:	10 e0       	ldi	r17, 0x00	; 0
	//variables for touch
	int x,y;
	int idlestate = 0, busy = 0;
	int number = 1;
	int counting_background = 0;
    1cb8:	aa 24       	eor	r10, r10
    1cba:	a3 94       	inc	r10
	// System startup
	makedisplay(0);
	//variables for touch
	int x,y;
	int idlestate = 0, busy = 0;
	int number = 1;
    1cbc:	b1 2c       	mov	r11, r1
    1cbe:	c1 2c       	mov	r12, r1
	
	// System startup
	makedisplay(0);
	//variables for touch
	int x,y;
	int idlestate = 0, busy = 0;
    1cc0:	d1 2c       	mov	r13, r1
    1cc2:	81 e0       	ldi	r24, 0x01	; 1
	//check for input
	
	while(1)
	{
		
		x = TouchRead(1);
    1cc4:	90 e0       	ldi	r25, 0x00	; 0
    1cc6:	d3 d0       	rcall	.+422    	; 0x1e6e <TouchRead>
    1cc8:	ec 01       	movw	r28, r24
    1cca:	82 e0       	ldi	r24, 0x02	; 2
		y = TouchRead(2);
    1ccc:	90 e0       	ldi	r25, 0x00	; 0
    1cce:	cf d0       	rcall	.+414    	; 0x1e6e <TouchRead>
    1cd0:	7c 01       	movw	r14, r24
    1cd2:	2f ef       	ldi	r18, 0xFF	; 255
    1cd4:	81 ee       	ldi	r24, 0xE1	; 225
    1cd6:	94 e0       	ldi	r25, 0x04	; 4
    1cd8:	21 50       	subi	r18, 0x01	; 1
    1cda:	80 40       	sbci	r24, 0x00	; 0
    1cdc:	90 40       	sbci	r25, 0x00	; 0
    1cde:	e1 f7       	brne	.-8      	; 0x1cd8 <main+0x7a>
    1ce0:	00 c0       	rjmp	.+0      	; 0x1ce2 <main+0x84>
    1ce2:	00 00       	nop
    1ce4:	0f 5f       	subi	r16, 0xFF	; 255
    1ce6:	1f 4f       	sbci	r17, 0xFF	; 255
		_delay_ms(100);
	   counting_background ++;
    1ce8:	ce 01       	movw	r24, r28
    1cea:	83 56       	subi	r24, 0x63	; 99
	   if (x < 3700 && x > 3170 && y < 720 && y > 460)
    1cec:	9c 40       	sbci	r25, 0x0C	; 12
    1cee:	81 31       	cpi	r24, 0x11	; 17
    1cf0:	92 40       	sbci	r25, 0x02	; 2
    1cf2:	a8 f5       	brcc	.+106    	; 0x1d5e <main+0x100>
    1cf4:	c7 01       	movw	r24, r14
    1cf6:	8d 5c       	subi	r24, 0xCD	; 205
    1cf8:	91 40       	sbci	r25, 0x01	; 1
    1cfa:	83 30       	cpi	r24, 0x03	; 3
    1cfc:	91 40       	sbci	r25, 0x01	; 1
    1cfe:	78 f5       	brcc	.+94     	; 0x1d5e <main+0x100>
    1d00:	c1 14       	cp	r12, r1
			{
				int _state;
				busy = 0;
				if(idlestate == 0)
    1d02:	d1 04       	cpc	r13, r1
    1d04:	79 f4       	brne	.+30     	; 0x1d24 <main+0xc6>
    1d06:	c5 01       	movw	r24, r10
				{
					_state = makedisplay(number);
    1d08:	e5 da       	rcall	.-2614   	; 0x12d4 <makedisplay>
    1d0a:	4c 01       	movw	r8, r24
    1d0c:	83 e0       	ldi	r24, 0x03	; 3
    1d0e:	a8 16       	cp	r10, r24
					if(number != 3)
    1d10:	b1 04       	cpc	r11, r1
    1d12:	09 f4       	brne	.+2      	; 0x1d16 <main+0xb8>
    1d14:	76 c0       	rjmp	.+236    	; 0x1e02 <main+0x1a4>
    1d16:	aa 24       	eor	r10, r10
    1d18:	a3 94       	inc	r10
					{
						number = 1;
    1d1a:	b1 2c       	mov	r11, r1
    1d1c:	cc 24       	eor	r12, r12
    1d1e:	c3 94       	inc	r12
						idlestate = 1;
    1d20:	d1 2c       	mov	r13, r1
    1d22:	6f c0       	rjmp	.+222    	; 0x1e02 <main+0x1a4>
    1d24:	91 e0       	ldi	r25, 0x01	; 1
						busy = 1;
					}	
				}
				
				else if(idlestate == 1 && busy == 0)
    1d26:	c9 16       	cp	r12, r25
    1d28:	d1 04       	cpc	r13, r1
    1d2a:	09 f0       	breq	.+2      	; 0x1d2e <main+0xd0>
    1d2c:	6a c0       	rjmp	.+212    	; 0x1e02 <main+0x1a4>
    1d2e:	b4 01       	movw	r22, r8
				{
					int succes = pickDevices(number, _state);
    1d30:	c5 01       	movw	r24, r10
    1d32:	09 d9       	rcall	.-3566   	; 0xf46 <pickDevices>
    1d34:	01 97       	sbiw	r24, 0x01	; 1
    1d36:	09 f0       	breq	.+2      	; 0x1d3a <main+0xdc>
					if(succes == 1)
    1d38:	64 c0       	rjmp	.+200    	; 0x1e02 <main+0x1a4>
    1d3a:	2f ef       	ldi	r18, 0xFF	; 255
    1d3c:	83 ed       	ldi	r24, 0xD3	; 211
    1d3e:	90 e3       	ldi	r25, 0x30	; 48
    1d40:	21 50       	subi	r18, 0x01	; 1
    1d42:	80 40       	sbci	r24, 0x00	; 0
    1d44:	90 40       	sbci	r25, 0x00	; 0
    1d46:	e1 f7       	brne	.-8      	; 0x1d40 <main+0xe2>
    1d48:	00 c0       	rjmp	.+0      	; 0x1d4a <main+0xec>
    1d4a:	00 00       	nop
    1d4c:	80 e0       	ldi	r24, 0x00	; 0
					{
						idlestate = 0;
						number = 1;
						_delay_ms(1000);
						makedisplay(0);	
    1d4e:	90 e0       	ldi	r25, 0x00	; 0
    1d50:	c1 da       	rcall	.-2686   	; 0x12d4 <makedisplay>
    1d52:	aa 24       	eor	r10, r10
    1d54:	a3 94       	inc	r10
				{
					int succes = pickDevices(number, _state);
					if(succes == 1)
					{
						idlestate = 0;
						number = 1;
    1d56:	b1 2c       	mov	r11, r1
    1d58:	c1 2c       	mov	r12, r1
    1d5a:	d1 2c       	mov	r13, r1
				else if(idlestate == 1 && busy == 0)
				{
					int succes = pickDevices(number, _state);
					if(succes == 1)
					{
						idlestate = 0;
    1d5c:	52 c0       	rjmp	.+164    	; 0x1e02 <main+0x1a4>
    1d5e:	ce 01       	movw	r24, r28
    1d60:	85 5d       	subi	r24, 0xD5	; 213
					}
				}
				
			}

	   if (x < 2840 && x > 2260 && y < 720 && y > 460)
    1d62:	98 40       	sbci	r25, 0x08	; 8
    1d64:	83 34       	cpi	r24, 0x43	; 67
    1d66:	92 40       	sbci	r25, 0x02	; 2
    1d68:	08 f0       	brcs	.+2      	; 0x1d6c <main+0x10e>
    1d6a:	58 c0       	rjmp	.+176    	; 0x1e1c <main+0x1be>
    1d6c:	c7 01       	movw	r24, r14
    1d6e:	8d 5c       	subi	r24, 0xCD	; 205
    1d70:	91 40       	sbci	r25, 0x01	; 1
    1d72:	83 30       	cpi	r24, 0x03	; 3
    1d74:	91 40       	sbci	r25, 0x01	; 1
    1d76:	08 f0       	brcs	.+2      	; 0x1d7a <main+0x11c>
    1d78:	51 c0       	rjmp	.+162    	; 0x1e1c <main+0x1be>
    1d7a:	80 e0       	ldi	r24, 0x00	; 0
			{
				makedisplay(0);
    1d7c:	90 e0       	ldi	r25, 0x00	; 0
    1d7e:	aa da       	rcall	.-2732   	; 0x12d4 <makedisplay>
    1d80:	ce 01       	movw	r24, r28
    1d82:	85 50       	subi	r24, 0x05	; 5
				number = 1;
				idlestate = 0;
			}
		
		
		if (x < 1830 && x > 1540 && y < 720 && y > 460)
    1d84:	96 40       	sbci	r25, 0x06	; 6
    1d86:	81 32       	cpi	r24, 0x21	; 33
    1d88:	91 40       	sbci	r25, 0x01	; 1
    1d8a:	80 f0       	brcs	.+32     	; 0x1dac <main+0x14e>
    1d8c:	c1 2c       	mov	r12, r1
    1d8e:	d1 2c       	mov	r13, r1

	   if (x < 2840 && x > 2260 && y < 720 && y > 460)
			{
				makedisplay(0);
				number = 1;
				idlestate = 0;
    1d90:	aa 24       	eor	r10, r10
    1d92:	a3 94       	inc	r10
			}

	   if (x < 2840 && x > 2260 && y < 720 && y > 460)
			{
				makedisplay(0);
				number = 1;
    1d94:	b1 2c       	mov	r11, r1
    1d96:	17 c0       	rjmp	.+46     	; 0x1dc6 <main+0x168>
    1d98:	8d ec       	ldi	r24, 0xCD	; 205
    1d9a:	e8 1a       	sub	r14, r24
				idlestate = 0;
			}
		
		
		if (x < 1830 && x > 1540 && y < 720 && y > 460)
    1d9c:	81 e0       	ldi	r24, 0x01	; 1
    1d9e:	f8 0a       	sbc	r15, r24
    1da0:	93 e0       	ldi	r25, 0x03	; 3
    1da2:	e9 16       	cp	r14, r25
    1da4:	91 e0       	ldi	r25, 0x01	; 1
    1da6:	f9 06       	cpc	r15, r25
    1da8:	18 f5       	brcc	.+70     	; 0x1df0 <main+0x192>
    1daa:	05 c0       	rjmp	.+10     	; 0x1db6 <main+0x158>
    1dac:	aa 24       	eor	r10, r10
    1dae:	a3 94       	inc	r10
			}

	   if (x < 2840 && x > 2260 && y < 720 && y > 460)
			{
				makedisplay(0);
				number = 1;
    1db0:	b1 2c       	mov	r11, r1
    1db2:	c1 2c       	mov	r12, r1
    1db4:	d1 2c       	mov	r13, r1
				idlestate = 0;
    1db6:	0e 94 5b 06 	call	0xcb6	; 0xcb6 <movePointerUp>
		
		
		if (x < 1830 && x > 1540 && y < 720 && y > 460)
		{
			int up_return = 0;
			up_return = movePointerUp();
    1dba:	01 97       	sbiw	r24, 0x01	; 1
    1dbc:	49 f5       	brne	.+82     	; 0x1e10 <main+0x1b2>
			if (up_return == 1)
    1dbe:	21 e0       	ldi	r18, 0x01	; 1
    1dc0:	a2 1a       	sub	r10, r18
			{
				number--;
    1dc2:	b1 08       	sbc	r11, r1
    1dc4:	25 c0       	rjmp	.+74     	; 0x1e10 <main+0x1b2>
    1dc6:	c9 5a       	subi	r28, 0xA9	; 169
    1dc8:	d2 40       	sbci	r29, 0x02	; 2
			}
			
		}
		if (x < 1270 && x > 680 && y < 720 && y > 460)
    1dca:	cd 34       	cpi	r28, 0x4D	; 77
    1dcc:	d2 40       	sbci	r29, 0x02	; 2
    1dce:	80 f4       	brcc	.+32     	; 0x1df0 <main+0x192>
    1dd0:	9d ec       	ldi	r25, 0xCD	; 205
    1dd2:	e9 1a       	sub	r14, r25
    1dd4:	91 e0       	ldi	r25, 0x01	; 1
    1dd6:	f9 0a       	sbc	r15, r25
    1dd8:	23 e0       	ldi	r18, 0x03	; 3
    1dda:	e2 16       	cp	r14, r18
    1ddc:	21 e0       	ldi	r18, 0x01	; 1
    1dde:	f2 06       	cpc	r15, r18
    1de0:	38 f4       	brcc	.+14     	; 0x1df0 <main+0x192>
    1de2:	0e 94 aa 06 	call	0xd54	; 0xd54 <movePointerDown>
		{
			int down_return = 0;
			down_return = movePointerDown();
    1de6:	01 97       	sbiw	r24, 0x01	; 1
			if (down_return == 1)
    1de8:	19 f4       	brne	.+6      	; 0x1df0 <main+0x192>
    1dea:	8f ef       	ldi	r24, 0xFF	; 255
			{
				number++;
    1dec:	a8 1a       	sub	r10, r24
    1dee:	b8 0a       	sbc	r11, r24
    1df0:	02 33       	cpi	r16, 0x32	; 50
			}
		}
		if (counting_background == 5000/100) //5 sekunder tller op ift delay
    1df2:	11 05       	cpc	r17, r1
    1df4:	09 f0       	breq	.+2      	; 0x1df8 <main+0x19a>
    1df6:	65 cf       	rjmp	.-310    	; 0x1cc2 <main+0x64>
    1df8:	c6 01       	movw	r24, r12
		{
			backgroundprocess(idlestate);
    1dfa:	b1 db       	rcall	.-2206   	; 0x155e <backgroundprocess>
    1dfc:	00 e0       	ldi	r16, 0x00	; 0
    1dfe:	10 e0       	ldi	r17, 0x00	; 0
			counting_background = 0;
    1e00:	60 cf       	rjmp	.-320    	; 0x1cc2 <main+0x64>
    1e02:	ce 01       	movw	r24, r28
    1e04:	85 5d       	subi	r24, 0xD5	; 213
					}
				}
				
			}

	   if (x < 2840 && x > 2260 && y < 720 && y > 460)
    1e06:	98 40       	sbci	r25, 0x08	; 8
    1e08:	83 34       	cpi	r24, 0x43	; 67
    1e0a:	92 40       	sbci	r25, 0x02	; 2
    1e0c:	38 f4       	brcc	.+14     	; 0x1e1c <main+0x1be>
    1e0e:	b5 cf       	rjmp	.-150    	; 0x1d7a <main+0x11c>
    1e10:	c9 5a       	subi	r28, 0xA9	; 169
    1e12:	d2 40       	sbci	r29, 0x02	; 2
			{
				number--;
			}
			
		}
		if (x < 1270 && x > 680 && y < 720 && y > 460)
    1e14:	cd 34       	cpi	r28, 0x4D	; 77
    1e16:	d2 40       	sbci	r29, 0x02	; 2
    1e18:	20 f3       	brcs	.-56     	; 0x1de2 <main+0x184>
    1e1a:	ea cf       	rjmp	.-44     	; 0x1df0 <main+0x192>
    1e1c:	ce 01       	movw	r24, r28
    1e1e:	85 50       	subi	r24, 0x05	; 5
				number = 1;
				idlestate = 0;
			}
		
		
		if (x < 1830 && x > 1540 && y < 720 && y > 460)
    1e20:	96 40       	sbci	r25, 0x06	; 6
    1e22:	81 32       	cpi	r24, 0x21	; 33
    1e24:	91 40       	sbci	r25, 0x01	; 1
    1e26:	78 f6       	brcc	.-98     	; 0x1dc6 <main+0x168>
    1e28:	b7 cf       	rjmp	.-146    	; 0x1d98 <main+0x13a>

00001e2a <Pulse>:
#define IRQ_BIT 4

// LOCAL FUNCTIONS /
void Pulse()
{
	CLK_PORT |= 1 << CLK_BIT; // Clock high
    1e2a:	e2 e0       	ldi	r30, 0x02	; 2
    1e2c:	f1 e0       	ldi	r31, 0x01	; 1
    1e2e:	80 81       	ld	r24, Z
    1e30:	88 60       	ori	r24, 0x08	; 8
    1e32:	80 83       	st	Z, r24
	...
	for(int i = 0; i<4;i++)
	{_NOP();}
	
	CLK_PORT &= ~(1 << CLK_BIT); // Clock low
    1e3c:	80 81       	ld	r24, Z
    1e3e:	87 7f       	andi	r24, 0xF7	; 247
    1e40:	80 83       	st	Z, r24
	...
	for(int i = 0; i<4;i++)
	{_NOP();}
    1e4a:	08 95       	ret

00001e4c <TouchInit>:

// PUBLIC FUNCTIONS 
void TouchInit()
{
	
	DDRH |= (1<<CLK_BIT);
    1e4c:	e1 e0       	ldi	r30, 0x01	; 1
    1e4e:	f1 e0       	ldi	r31, 0x01	; 1
    1e50:	80 81       	ld	r24, Z
    1e52:	88 60       	ori	r24, 0x08	; 8
    1e54:	80 83       	st	Z, r24
	DDRE |= (1<<CS_BIT);
    1e56:	6b 9a       	sbi	0x0d, 3	; 13
	DDRG |= (1<<IN_BIT);
    1e58:	9d 9a       	sbi	0x13, 5	; 19
	DDRE &= ~(1<<OUT_BIT);
    1e5a:	6d 98       	cbi	0x0d, 5	; 13
	DDRE &= ~(1<<IRQ_BIT);
    1e5c:	6c 98       	cbi	0x0d, 4	; 13
	
	CS_IRQ_PORT |= 1 << CS_BIT;
    1e5e:	73 9a       	sbi	0x0e, 3	; 14
	IN_PORT |= 1 << IN_BIT;
    1e60:	a5 9a       	sbi	0x14, 5	; 20
	CLK_PORT |= 1 << CLK_BIT;
    1e62:	e2 e0       	ldi	r30, 0x02	; 2
    1e64:	f1 e0       	ldi	r31, 0x01	; 1
    1e66:	80 81       	ld	r24, Z
    1e68:	88 60       	ori	r24, 0x08	; 8
    1e6a:	80 83       	st	Z, r24
    1e6c:	08 95       	ret

00001e6e <TouchRead>:
	
}
int TouchRead(int xy)
{
    1e6e:	0f 93       	push	r16
    1e70:	1f 93       	push	r17
    1e72:	cf 93       	push	r28
    1e74:	df 93       	push	r29
	int cmd = 0;
	if (xy == 1)
    1e76:	81 30       	cpi	r24, 0x01	; 1
    1e78:	91 05       	cpc	r25, r1
    1e7a:	29 f0       	breq	.+10     	; 0x1e86 <TouchRead+0x18>
	{
		cmd = 0x90; //read y
	}
	
	else if (xy == 2)
    1e7c:	02 97       	sbiw	r24, 0x02	; 2
    1e7e:	31 f4       	brne	.+12     	; 0x1e8c <TouchRead+0x1e>
	{
		cmd = 0xD0; //read x
    1e80:	00 ed       	ldi	r16, 0xD0	; 208
    1e82:	10 e0       	ldi	r17, 0x00	; 0
    1e84:	05 c0       	rjmp	.+10     	; 0x1e90 <TouchRead+0x22>
int TouchRead(int xy)
{
	int cmd = 0;
	if (xy == 1)
	{
		cmd = 0x90; //read y
    1e86:	00 e9       	ldi	r16, 0x90	; 144
    1e88:	10 e0       	ldi	r17, 0x00	; 0
    1e8a:	02 c0       	rjmp	.+4      	; 0x1e90 <TouchRead+0x22>
	CLK_PORT |= 1 << CLK_BIT;
	
}
int TouchRead(int xy)
{
	int cmd = 0;
    1e8c:	00 e0       	ldi	r16, 0x00	; 0
    1e8e:	10 e0       	ldi	r17, 0x00	; 0
	else if (xy == 2)
	{
		cmd = 0xD0; //read x
	}
	
	CS_IRQ_PORT &= ~(1 << CS_BIT);
    1e90:	73 98       	cbi	0x0e, 3	; 14
	_NOP();
    1e92:	00 00       	nop
	_NOP();
    1e94:	00 00       	nop
	for(int i = 7; i >= 0; i--)
    1e96:	c7 e0       	ldi	r28, 0x07	; 7
    1e98:	d0 e0       	ldi	r29, 0x00	; 0
	{
		if ((cmd & 0b00000001<<i) != 0)
    1e9a:	c8 01       	movw	r24, r16
    1e9c:	0c 2e       	mov	r0, r28
    1e9e:	02 c0       	rjmp	.+4      	; 0x1ea4 <TouchRead+0x36>
    1ea0:	95 95       	asr	r25
    1ea2:	87 95       	ror	r24
    1ea4:	0a 94       	dec	r0
    1ea6:	e2 f7       	brpl	.-8      	; 0x1ea0 <TouchRead+0x32>
    1ea8:	80 ff       	sbrs	r24, 0
    1eaa:	02 c0       	rjmp	.+4      	; 0x1eb0 <TouchRead+0x42>
		{
			IN_PORT |= 1 << IN_BIT;
    1eac:	a5 9a       	sbi	0x14, 5	; 20
    1eae:	01 c0       	rjmp	.+2      	; 0x1eb2 <TouchRead+0x44>
		}
		else
		{
			IN_PORT &= ~(1 << IN_BIT);
    1eb0:	a5 98       	cbi	0x14, 5	; 20
		}
		
		_NOP();
    1eb2:	00 00       	nop
		_NOP();
    1eb4:	00 00       	nop
		Pulse();
    1eb6:	b9 df       	rcall	.-142    	; 0x1e2a <Pulse>
	}
	
	CS_IRQ_PORT &= ~(1 << CS_BIT);
	_NOP();
	_NOP();
	for(int i = 7; i >= 0; i--)
    1eb8:	21 97       	sbiw	r28, 0x01	; 1
    1eba:	78 f7       	brcc	.-34     	; 0x1e9a <TouchRead+0x2c>
    1ebc:	0c e0       	ldi	r16, 0x0C	; 12
    1ebe:	10 e0       	ldi	r17, 0x00	; 0
    1ec0:	c0 e0       	ldi	r28, 0x00	; 0
    1ec2:	d0 e0       	ldi	r29, 0x00	; 0
	}
	
	int data = 0;
	for(int i = 0; i < 12; i++)
	{
		data = data << 1;
    1ec4:	cc 0f       	add	r28, r28
		Pulse();
    1ec6:	dd 1f       	adc	r29, r29
    1ec8:	b0 df       	rcall	.-160    	; 0x1e2a <Pulse>
		if((PINE & 0b00100000) != 0)
    1eca:	65 99       	sbic	0x0c, 5	; 12
		{
			data++;
    1ecc:	21 96       	adiw	r28, 0x01	; 1
    1ece:	01 50       	subi	r16, 0x01	; 1
    1ed0:	11 09       	sbc	r17, r1
		_NOP();
		Pulse();
	}
	
	int data = 0;
	for(int i = 0; i < 12; i++)
    1ed2:	c1 f7       	brne	.-16     	; 0x1ec4 <TouchRead+0x56>
		if((PINE & 0b00100000) != 0)
		{
			data++;
		}
	}
	CS_IRQ_PORT |= 1 << CS_BIT;
    1ed4:	73 9a       	sbi	0x0e, 3	; 14
	
	return data;
}
    1ed6:	ce 01       	movw	r24, r28
    1ed8:	df 91       	pop	r29
    1eda:	cf 91       	pop	r28
    1edc:	1f 91       	pop	r17
    1ede:	0f 91       	pop	r16
    1ee0:	08 95       	ret

00001ee2 <InitUART>:
  Returns value <> 0 (TRUE), if the UART HAS received a new character.
*************************************************************************/
unsigned char CharReady()
{
   return UCSR0A & (1<<7);
}
    1ee2:	0f 93       	push	r16
    1ee4:	1f 93       	push	r17
    1ee6:	52 2f       	mov	r21, r18
    1ee8:	8b 01       	movw	r16, r22
    1eea:	9c 01       	movw	r18, r24
    1eec:	0e 56       	subi	r16, 0x6E	; 110
    1eee:	11 09       	sbc	r17, r1
    1ef0:	21 09       	sbc	r18, r1
    1ef2:	31 09       	sbc	r19, r1
    1ef4:	03 39       	cpi	r16, 0x93	; 147
    1ef6:	11 4c       	sbci	r17, 0xC1	; 193
    1ef8:	21 40       	sbci	r18, 0x01	; 1
    1efa:	31 05       	cpc	r19, r1
    1efc:	d0 f5       	brcc	.+116    	; 0x1f72 <InitUART+0x90>
    1efe:	45 50       	subi	r20, 0x05	; 5
    1f00:	44 30       	cpi	r20, 0x04	; 4
    1f02:	b8 f5       	brcc	.+110    	; 0x1f72 <InitUART+0x90>
    1f04:	20 e2       	ldi	r18, 0x20	; 32
    1f06:	20 93 c0 00 	sts	0x00C0, r18	; 0x8000c0 <__TEXT_REGION_LENGTH__+0x7000c0>
    1f0a:	28 e1       	ldi	r18, 0x18	; 24
    1f0c:	20 93 c1 00 	sts	0x00C1, r18	; 0x8000c1 <__TEXT_REGION_LENGTH__+0x7000c1>
    1f10:	44 0f       	add	r20, r20
    1f12:	40 93 c2 00 	sts	0x00C2, r20	; 0x8000c2 <__TEXT_REGION_LENGTH__+0x7000c2>
    1f16:	55 34       	cpi	r21, 0x45	; 69
    1f18:	31 f4       	brne	.+12     	; 0x1f26 <InitUART+0x44>
    1f1a:	e2 ec       	ldi	r30, 0xC2	; 194
    1f1c:	f0 e0       	ldi	r31, 0x00	; 0
    1f1e:	20 81       	ld	r18, Z
    1f20:	20 62       	ori	r18, 0x20	; 32
    1f22:	20 83       	st	Z, r18
    1f24:	07 c0       	rjmp	.+14     	; 0x1f34 <InitUART+0x52>
    1f26:	5f 34       	cpi	r21, 0x4F	; 79
    1f28:	29 f4       	brne	.+10     	; 0x1f34 <InitUART+0x52>
    1f2a:	e2 ec       	ldi	r30, 0xC2	; 194
    1f2c:	f0 e0       	ldi	r31, 0x00	; 0
    1f2e:	20 81       	ld	r18, Z
    1f30:	20 63       	ori	r18, 0x30	; 48
    1f32:	20 83       	st	Z, r18
    1f34:	dc 01       	movw	r26, r24
    1f36:	cb 01       	movw	r24, r22
    1f38:	88 0f       	add	r24, r24
    1f3a:	99 1f       	adc	r25, r25
    1f3c:	aa 1f       	adc	r26, r26
    1f3e:	bb 1f       	adc	r27, r27
    1f40:	88 0f       	add	r24, r24
    1f42:	99 1f       	adc	r25, r25
    1f44:	aa 1f       	adc	r26, r26
    1f46:	bb 1f       	adc	r27, r27
    1f48:	9c 01       	movw	r18, r24
    1f4a:	ad 01       	movw	r20, r26
    1f4c:	22 0f       	add	r18, r18
    1f4e:	33 1f       	adc	r19, r19
    1f50:	44 1f       	adc	r20, r20
    1f52:	55 1f       	adc	r21, r21
    1f54:	22 0f       	add	r18, r18
    1f56:	33 1f       	adc	r19, r19
    1f58:	44 1f       	adc	r20, r20
    1f5a:	55 1f       	adc	r21, r21
    1f5c:	60 e0       	ldi	r22, 0x00	; 0
    1f5e:	74 e2       	ldi	r23, 0x24	; 36
    1f60:	84 ef       	ldi	r24, 0xF4	; 244
    1f62:	90 e0       	ldi	r25, 0x00	; 0
    1f64:	3a d0       	rcall	.+116    	; 0x1fda <__udivmodsi4>
    1f66:	21 50       	subi	r18, 0x01	; 1
    1f68:	31 09       	sbc	r19, r1
    1f6a:	20 93 c4 00 	sts	0x00C4, r18	; 0x8000c4 <__TEXT_REGION_LENGTH__+0x7000c4>
    1f6e:	30 93 c5 00 	sts	0x00C5, r19	; 0x8000c5 <__TEXT_REGION_LENGTH__+0x7000c5>
    1f72:	1f 91       	pop	r17
    1f74:	0f 91       	pop	r16
    1f76:	08 95       	ret

00001f78 <ReadChar>:
Then this character is returned.
*************************************************************************/
char ReadChar()
{
  // Wait for new character received
  while ( (UCSR0A & (1<<7)) == 0 )
    1f78:	e0 ec       	ldi	r30, 0xC0	; 192
    1f7a:	f0 e0       	ldi	r31, 0x00	; 0
    1f7c:	80 81       	ld	r24, Z
    1f7e:	88 23       	and	r24, r24
    1f80:	ec f7       	brge	.-6      	; 0x1f7c <ReadChar+0x4>
  {}                        
  // Then return it
  return UDR0;
    1f82:	80 91 c6 00 	lds	r24, 0x00C6	; 0x8000c6 <__TEXT_REGION_LENGTH__+0x7000c6>
}
    1f86:	08 95       	ret

00001f88 <SendChar>:
	Tegn : Character for sending. 
*************************************************************************/
void SendChar(char Tegn)
{
  // Wait for transmitter register empty (ready for new character)
  while ( (UCSR0A & (1<<5)) == 0 )
    1f88:	e0 ec       	ldi	r30, 0xC0	; 192
    1f8a:	f0 e0       	ldi	r31, 0x00	; 0
    1f8c:	90 81       	ld	r25, Z
    1f8e:	95 ff       	sbrs	r25, 5
    1f90:	fd cf       	rjmp	.-6      	; 0x1f8c <SendChar+0x4>
  {}
  // Then send the character
  UDR0 = Tegn;
    1f92:	80 93 c6 00 	sts	0x00C6, r24	; 0x8000c6 <__TEXT_REGION_LENGTH__+0x7000c6>
    1f96:	08 95       	ret

00001f98 <SendString>:
Sends 0 terminated string.
Parameter:
   Streng: Pointer to the string. 
*************************************************************************/
void SendString(char* Streng)
{
    1f98:	cf 93       	push	r28
    1f9a:	df 93       	push	r29
    1f9c:	ec 01       	movw	r28, r24
  // Repeat until zero-termination
  while (*Streng != 0)
    1f9e:	88 81       	ld	r24, Y
    1fa0:	88 23       	and	r24, r24
    1fa2:	29 f0       	breq	.+10     	; 0x1fae <SendString+0x16>
    1fa4:	21 96       	adiw	r28, 0x01	; 1
  {
    // Send the character pointed to by "Streng"
    SendChar(*Streng);
    1fa6:	f0 df       	rcall	.-32     	; 0x1f88 <SendChar>
   Streng: Pointer to the string. 
*************************************************************************/
void SendString(char* Streng)
{
  // Repeat until zero-termination
  while (*Streng != 0)
    1fa8:	89 91       	ld	r24, Y+
    1faa:	81 11       	cpse	r24, r1
    1fac:	fc cf       	rjmp	.-8      	; 0x1fa6 <SendString+0xe>
    // Send the character pointed to by "Streng"
    SendChar(*Streng);
    // Advance the pointer one step
    Streng++;
  }
}
    1fae:	df 91       	pop	r29
    1fb0:	cf 91       	pop	r28
    1fb2:	08 95       	ret

00001fb4 <__divmodhi4>:
    1fb4:	97 fb       	bst	r25, 7
    1fb6:	07 2e       	mov	r0, r23
    1fb8:	16 f4       	brtc	.+4      	; 0x1fbe <__divmodhi4+0xa>
    1fba:	00 94       	com	r0
    1fbc:	06 d0       	rcall	.+12     	; 0x1fca <__divmodhi4_neg1>
    1fbe:	77 fd       	sbrc	r23, 7
    1fc0:	08 d0       	rcall	.+16     	; 0x1fd2 <__divmodhi4_neg2>
    1fc2:	3c d0       	rcall	.+120    	; 0x203c <__udivmodhi4>
    1fc4:	07 fc       	sbrc	r0, 7
    1fc6:	05 d0       	rcall	.+10     	; 0x1fd2 <__divmodhi4_neg2>
    1fc8:	3e f4       	brtc	.+14     	; 0x1fd8 <__divmodhi4_exit>

00001fca <__divmodhi4_neg1>:
    1fca:	90 95       	com	r25
    1fcc:	81 95       	neg	r24
    1fce:	9f 4f       	sbci	r25, 0xFF	; 255
    1fd0:	08 95       	ret

00001fd2 <__divmodhi4_neg2>:
    1fd2:	70 95       	com	r23
    1fd4:	61 95       	neg	r22
    1fd6:	7f 4f       	sbci	r23, 0xFF	; 255

00001fd8 <__divmodhi4_exit>:
    1fd8:	08 95       	ret

00001fda <__udivmodsi4>:
    1fda:	a1 e2       	ldi	r26, 0x21	; 33
    1fdc:	1a 2e       	mov	r1, r26
    1fde:	aa 1b       	sub	r26, r26
    1fe0:	bb 1b       	sub	r27, r27
    1fe2:	fd 01       	movw	r30, r26
    1fe4:	0d c0       	rjmp	.+26     	; 0x2000 <__udivmodsi4_ep>

00001fe6 <__udivmodsi4_loop>:
    1fe6:	aa 1f       	adc	r26, r26
    1fe8:	bb 1f       	adc	r27, r27
    1fea:	ee 1f       	adc	r30, r30
    1fec:	ff 1f       	adc	r31, r31
    1fee:	a2 17       	cp	r26, r18
    1ff0:	b3 07       	cpc	r27, r19
    1ff2:	e4 07       	cpc	r30, r20
    1ff4:	f5 07       	cpc	r31, r21
    1ff6:	20 f0       	brcs	.+8      	; 0x2000 <__udivmodsi4_ep>
    1ff8:	a2 1b       	sub	r26, r18
    1ffa:	b3 0b       	sbc	r27, r19
    1ffc:	e4 0b       	sbc	r30, r20
    1ffe:	f5 0b       	sbc	r31, r21

00002000 <__udivmodsi4_ep>:
    2000:	66 1f       	adc	r22, r22
    2002:	77 1f       	adc	r23, r23
    2004:	88 1f       	adc	r24, r24
    2006:	99 1f       	adc	r25, r25
    2008:	1a 94       	dec	r1
    200a:	69 f7       	brne	.-38     	; 0x1fe6 <__udivmodsi4_loop>
    200c:	60 95       	com	r22
    200e:	70 95       	com	r23
    2010:	80 95       	com	r24
    2012:	90 95       	com	r25
    2014:	9b 01       	movw	r18, r22
    2016:	ac 01       	movw	r20, r24
    2018:	bd 01       	movw	r22, r26
    201a:	cf 01       	movw	r24, r30
    201c:	08 95       	ret

0000201e <__umulhisi3>:
    201e:	a2 9f       	mul	r26, r18
    2020:	b0 01       	movw	r22, r0
    2022:	b3 9f       	mul	r27, r19
    2024:	c0 01       	movw	r24, r0
    2026:	a3 9f       	mul	r26, r19
    2028:	70 0d       	add	r23, r0
    202a:	81 1d       	adc	r24, r1
    202c:	11 24       	eor	r1, r1
    202e:	91 1d       	adc	r25, r1
    2030:	b2 9f       	mul	r27, r18
    2032:	70 0d       	add	r23, r0
    2034:	81 1d       	adc	r24, r1
    2036:	11 24       	eor	r1, r1
    2038:	91 1d       	adc	r25, r1
    203a:	08 95       	ret

0000203c <__udivmodhi4>:
    203c:	aa 1b       	sub	r26, r26
    203e:	bb 1b       	sub	r27, r27
    2040:	51 e1       	ldi	r21, 0x11	; 17
    2042:	07 c0       	rjmp	.+14     	; 0x2052 <__udivmodhi4_ep>

00002044 <__udivmodhi4_loop>:
    2044:	aa 1f       	adc	r26, r26
    2046:	bb 1f       	adc	r27, r27
    2048:	a6 17       	cp	r26, r22
    204a:	b7 07       	cpc	r27, r23
    204c:	10 f0       	brcs	.+4      	; 0x2052 <__udivmodhi4_ep>
    204e:	a6 1b       	sub	r26, r22
    2050:	b7 0b       	sbc	r27, r23

00002052 <__udivmodhi4_ep>:
    2052:	88 1f       	adc	r24, r24
    2054:	99 1f       	adc	r25, r25
    2056:	5a 95       	dec	r21
    2058:	a9 f7       	brne	.-22     	; 0x2044 <__udivmodhi4_loop>
    205a:	80 95       	com	r24
    205c:	90 95       	com	r25
    205e:	bc 01       	movw	r22, r24
    2060:	cd 01       	movw	r24, r26
    2062:	08 95       	ret

00002064 <malloc>:
    2064:	0f 93       	push	r16
    2066:	1f 93       	push	r17
    2068:	cf 93       	push	r28
    206a:	df 93       	push	r29
    206c:	82 30       	cpi	r24, 0x02	; 2
    206e:	91 05       	cpc	r25, r1
    2070:	10 f4       	brcc	.+4      	; 0x2076 <malloc+0x12>
    2072:	82 e0       	ldi	r24, 0x02	; 2
    2074:	90 e0       	ldi	r25, 0x00	; 0
    2076:	e0 91 ba 19 	lds	r30, 0x19BA	; 0x8019ba <__flp>
    207a:	f0 91 bb 19 	lds	r31, 0x19BB	; 0x8019bb <__flp+0x1>
    207e:	20 e0       	ldi	r18, 0x00	; 0
    2080:	30 e0       	ldi	r19, 0x00	; 0
    2082:	a0 e0       	ldi	r26, 0x00	; 0
    2084:	b0 e0       	ldi	r27, 0x00	; 0
    2086:	30 97       	sbiw	r30, 0x00	; 0
    2088:	19 f1       	breq	.+70     	; 0x20d0 <malloc+0x6c>
    208a:	40 81       	ld	r20, Z
    208c:	51 81       	ldd	r21, Z+1	; 0x01
    208e:	02 81       	ldd	r16, Z+2	; 0x02
    2090:	13 81       	ldd	r17, Z+3	; 0x03
    2092:	48 17       	cp	r20, r24
    2094:	59 07       	cpc	r21, r25
    2096:	c8 f0       	brcs	.+50     	; 0x20ca <malloc+0x66>
    2098:	84 17       	cp	r24, r20
    209a:	95 07       	cpc	r25, r21
    209c:	69 f4       	brne	.+26     	; 0x20b8 <malloc+0x54>
    209e:	10 97       	sbiw	r26, 0x00	; 0
    20a0:	31 f0       	breq	.+12     	; 0x20ae <malloc+0x4a>
    20a2:	12 96       	adiw	r26, 0x02	; 2
    20a4:	0c 93       	st	X, r16
    20a6:	12 97       	sbiw	r26, 0x02	; 2
    20a8:	13 96       	adiw	r26, 0x03	; 3
    20aa:	1c 93       	st	X, r17
    20ac:	27 c0       	rjmp	.+78     	; 0x20fc <malloc+0x98>
    20ae:	00 93 ba 19 	sts	0x19BA, r16	; 0x8019ba <__flp>
    20b2:	10 93 bb 19 	sts	0x19BB, r17	; 0x8019bb <__flp+0x1>
    20b6:	22 c0       	rjmp	.+68     	; 0x20fc <malloc+0x98>
    20b8:	21 15       	cp	r18, r1
    20ba:	31 05       	cpc	r19, r1
    20bc:	19 f0       	breq	.+6      	; 0x20c4 <malloc+0x60>
    20be:	42 17       	cp	r20, r18
    20c0:	53 07       	cpc	r21, r19
    20c2:	18 f4       	brcc	.+6      	; 0x20ca <malloc+0x66>
    20c4:	9a 01       	movw	r18, r20
    20c6:	bd 01       	movw	r22, r26
    20c8:	ef 01       	movw	r28, r30
    20ca:	df 01       	movw	r26, r30
    20cc:	f8 01       	movw	r30, r16
    20ce:	db cf       	rjmp	.-74     	; 0x2086 <malloc+0x22>
    20d0:	21 15       	cp	r18, r1
    20d2:	31 05       	cpc	r19, r1
    20d4:	f9 f0       	breq	.+62     	; 0x2114 <malloc+0xb0>
    20d6:	28 1b       	sub	r18, r24
    20d8:	39 0b       	sbc	r19, r25
    20da:	24 30       	cpi	r18, 0x04	; 4
    20dc:	31 05       	cpc	r19, r1
    20de:	80 f4       	brcc	.+32     	; 0x2100 <malloc+0x9c>
    20e0:	8a 81       	ldd	r24, Y+2	; 0x02
    20e2:	9b 81       	ldd	r25, Y+3	; 0x03
    20e4:	61 15       	cp	r22, r1
    20e6:	71 05       	cpc	r23, r1
    20e8:	21 f0       	breq	.+8      	; 0x20f2 <malloc+0x8e>
    20ea:	fb 01       	movw	r30, r22
    20ec:	93 83       	std	Z+3, r25	; 0x03
    20ee:	82 83       	std	Z+2, r24	; 0x02
    20f0:	04 c0       	rjmp	.+8      	; 0x20fa <malloc+0x96>
    20f2:	90 93 bb 19 	sts	0x19BB, r25	; 0x8019bb <__flp+0x1>
    20f6:	80 93 ba 19 	sts	0x19BA, r24	; 0x8019ba <__flp>
    20fa:	fe 01       	movw	r30, r28
    20fc:	32 96       	adiw	r30, 0x02	; 2
    20fe:	44 c0       	rjmp	.+136    	; 0x2188 <malloc+0x124>
    2100:	fe 01       	movw	r30, r28
    2102:	e2 0f       	add	r30, r18
    2104:	f3 1f       	adc	r31, r19
    2106:	81 93       	st	Z+, r24
    2108:	91 93       	st	Z+, r25
    210a:	22 50       	subi	r18, 0x02	; 2
    210c:	31 09       	sbc	r19, r1
    210e:	39 83       	std	Y+1, r19	; 0x01
    2110:	28 83       	st	Y, r18
    2112:	3a c0       	rjmp	.+116    	; 0x2188 <malloc+0x124>
    2114:	20 91 b8 19 	lds	r18, 0x19B8	; 0x8019b8 <__brkval>
    2118:	30 91 b9 19 	lds	r19, 0x19B9	; 0x8019b9 <__brkval+0x1>
    211c:	23 2b       	or	r18, r19
    211e:	41 f4       	brne	.+16     	; 0x2130 <malloc+0xcc>
    2120:	20 91 02 02 	lds	r18, 0x0202	; 0x800202 <__malloc_heap_start>
    2124:	30 91 03 02 	lds	r19, 0x0203	; 0x800203 <__malloc_heap_start+0x1>
    2128:	30 93 b9 19 	sts	0x19B9, r19	; 0x8019b9 <__brkval+0x1>
    212c:	20 93 b8 19 	sts	0x19B8, r18	; 0x8019b8 <__brkval>
    2130:	20 91 00 02 	lds	r18, 0x0200	; 0x800200 <__data_start>
    2134:	30 91 01 02 	lds	r19, 0x0201	; 0x800201 <__data_start+0x1>
    2138:	21 15       	cp	r18, r1
    213a:	31 05       	cpc	r19, r1
    213c:	41 f4       	brne	.+16     	; 0x214e <malloc+0xea>
    213e:	2d b7       	in	r18, 0x3d	; 61
    2140:	3e b7       	in	r19, 0x3e	; 62
    2142:	40 91 04 02 	lds	r20, 0x0204	; 0x800204 <__malloc_margin>
    2146:	50 91 05 02 	lds	r21, 0x0205	; 0x800205 <__malloc_margin+0x1>
    214a:	24 1b       	sub	r18, r20
    214c:	35 0b       	sbc	r19, r21
    214e:	e0 91 b8 19 	lds	r30, 0x19B8	; 0x8019b8 <__brkval>
    2152:	f0 91 b9 19 	lds	r31, 0x19B9	; 0x8019b9 <__brkval+0x1>
    2156:	e2 17       	cp	r30, r18
    2158:	f3 07       	cpc	r31, r19
    215a:	a0 f4       	brcc	.+40     	; 0x2184 <malloc+0x120>
    215c:	2e 1b       	sub	r18, r30
    215e:	3f 0b       	sbc	r19, r31
    2160:	28 17       	cp	r18, r24
    2162:	39 07       	cpc	r19, r25
    2164:	78 f0       	brcs	.+30     	; 0x2184 <malloc+0x120>
    2166:	ac 01       	movw	r20, r24
    2168:	4e 5f       	subi	r20, 0xFE	; 254
    216a:	5f 4f       	sbci	r21, 0xFF	; 255
    216c:	24 17       	cp	r18, r20
    216e:	35 07       	cpc	r19, r21
    2170:	48 f0       	brcs	.+18     	; 0x2184 <malloc+0x120>
    2172:	4e 0f       	add	r20, r30
    2174:	5f 1f       	adc	r21, r31
    2176:	50 93 b9 19 	sts	0x19B9, r21	; 0x8019b9 <__brkval+0x1>
    217a:	40 93 b8 19 	sts	0x19B8, r20	; 0x8019b8 <__brkval>
    217e:	81 93       	st	Z+, r24
    2180:	91 93       	st	Z+, r25
    2182:	02 c0       	rjmp	.+4      	; 0x2188 <malloc+0x124>
    2184:	e0 e0       	ldi	r30, 0x00	; 0
    2186:	f0 e0       	ldi	r31, 0x00	; 0
    2188:	cf 01       	movw	r24, r30
    218a:	df 91       	pop	r29
    218c:	cf 91       	pop	r28
    218e:	1f 91       	pop	r17
    2190:	0f 91       	pop	r16
    2192:	08 95       	ret

00002194 <free>:
    2194:	cf 93       	push	r28
    2196:	df 93       	push	r29
    2198:	00 97       	sbiw	r24, 0x00	; 0
    219a:	09 f4       	brne	.+2      	; 0x219e <free+0xa>
    219c:	81 c0       	rjmp	.+258    	; 0x22a0 <__stack+0xa1>
    219e:	fc 01       	movw	r30, r24
    21a0:	32 97       	sbiw	r30, 0x02	; 2
    21a2:	13 82       	std	Z+3, r1	; 0x03
    21a4:	12 82       	std	Z+2, r1	; 0x02
    21a6:	a0 91 ba 19 	lds	r26, 0x19BA	; 0x8019ba <__flp>
    21aa:	b0 91 bb 19 	lds	r27, 0x19BB	; 0x8019bb <__flp+0x1>
    21ae:	10 97       	sbiw	r26, 0x00	; 0
    21b0:	81 f4       	brne	.+32     	; 0x21d2 <free+0x3e>
    21b2:	20 81       	ld	r18, Z
    21b4:	31 81       	ldd	r19, Z+1	; 0x01
    21b6:	82 0f       	add	r24, r18
    21b8:	93 1f       	adc	r25, r19
    21ba:	20 91 b8 19 	lds	r18, 0x19B8	; 0x8019b8 <__brkval>
    21be:	30 91 b9 19 	lds	r19, 0x19B9	; 0x8019b9 <__brkval+0x1>
    21c2:	28 17       	cp	r18, r24
    21c4:	39 07       	cpc	r19, r25
    21c6:	51 f5       	brne	.+84     	; 0x221c <__stack+0x1d>
    21c8:	f0 93 b9 19 	sts	0x19B9, r31	; 0x8019b9 <__brkval+0x1>
    21cc:	e0 93 b8 19 	sts	0x19B8, r30	; 0x8019b8 <__brkval>
    21d0:	67 c0       	rjmp	.+206    	; 0x22a0 <__stack+0xa1>
    21d2:	ed 01       	movw	r28, r26
    21d4:	20 e0       	ldi	r18, 0x00	; 0
    21d6:	30 e0       	ldi	r19, 0x00	; 0
    21d8:	ce 17       	cp	r28, r30
    21da:	df 07       	cpc	r29, r31
    21dc:	40 f4       	brcc	.+16     	; 0x21ee <free+0x5a>
    21de:	4a 81       	ldd	r20, Y+2	; 0x02
    21e0:	5b 81       	ldd	r21, Y+3	; 0x03
    21e2:	9e 01       	movw	r18, r28
    21e4:	41 15       	cp	r20, r1
    21e6:	51 05       	cpc	r21, r1
    21e8:	f1 f0       	breq	.+60     	; 0x2226 <__stack+0x27>
    21ea:	ea 01       	movw	r28, r20
    21ec:	f5 cf       	rjmp	.-22     	; 0x21d8 <free+0x44>
    21ee:	d3 83       	std	Z+3, r29	; 0x03
    21f0:	c2 83       	std	Z+2, r28	; 0x02
    21f2:	40 81       	ld	r20, Z
    21f4:	51 81       	ldd	r21, Z+1	; 0x01
    21f6:	84 0f       	add	r24, r20
    21f8:	95 1f       	adc	r25, r21
    21fa:	c8 17       	cp	r28, r24
    21fc:	d9 07       	cpc	r29, r25
    21fe:	59 f4       	brne	.+22     	; 0x2216 <__stack+0x17>
    2200:	88 81       	ld	r24, Y
    2202:	99 81       	ldd	r25, Y+1	; 0x01
    2204:	84 0f       	add	r24, r20
    2206:	95 1f       	adc	r25, r21
    2208:	02 96       	adiw	r24, 0x02	; 2
    220a:	91 83       	std	Z+1, r25	; 0x01
    220c:	80 83       	st	Z, r24
    220e:	8a 81       	ldd	r24, Y+2	; 0x02
    2210:	9b 81       	ldd	r25, Y+3	; 0x03
    2212:	93 83       	std	Z+3, r25	; 0x03
    2214:	82 83       	std	Z+2, r24	; 0x02
    2216:	21 15       	cp	r18, r1
    2218:	31 05       	cpc	r19, r1
    221a:	29 f4       	brne	.+10     	; 0x2226 <__stack+0x27>
    221c:	f0 93 bb 19 	sts	0x19BB, r31	; 0x8019bb <__flp+0x1>
    2220:	e0 93 ba 19 	sts	0x19BA, r30	; 0x8019ba <__flp>
    2224:	3d c0       	rjmp	.+122    	; 0x22a0 <__stack+0xa1>
    2226:	e9 01       	movw	r28, r18
    2228:	fb 83       	std	Y+3, r31	; 0x03
    222a:	ea 83       	std	Y+2, r30	; 0x02
    222c:	49 91       	ld	r20, Y+
    222e:	59 91       	ld	r21, Y+
    2230:	c4 0f       	add	r28, r20
    2232:	d5 1f       	adc	r29, r21
    2234:	ec 17       	cp	r30, r28
    2236:	fd 07       	cpc	r31, r29
    2238:	61 f4       	brne	.+24     	; 0x2252 <__stack+0x53>
    223a:	80 81       	ld	r24, Z
    223c:	91 81       	ldd	r25, Z+1	; 0x01
    223e:	84 0f       	add	r24, r20
    2240:	95 1f       	adc	r25, r21
    2242:	02 96       	adiw	r24, 0x02	; 2
    2244:	e9 01       	movw	r28, r18
    2246:	99 83       	std	Y+1, r25	; 0x01
    2248:	88 83       	st	Y, r24
    224a:	82 81       	ldd	r24, Z+2	; 0x02
    224c:	93 81       	ldd	r25, Z+3	; 0x03
    224e:	9b 83       	std	Y+3, r25	; 0x03
    2250:	8a 83       	std	Y+2, r24	; 0x02
    2252:	e0 e0       	ldi	r30, 0x00	; 0
    2254:	f0 e0       	ldi	r31, 0x00	; 0
    2256:	12 96       	adiw	r26, 0x02	; 2
    2258:	8d 91       	ld	r24, X+
    225a:	9c 91       	ld	r25, X
    225c:	13 97       	sbiw	r26, 0x03	; 3
    225e:	00 97       	sbiw	r24, 0x00	; 0
    2260:	19 f0       	breq	.+6      	; 0x2268 <__stack+0x69>
    2262:	fd 01       	movw	r30, r26
    2264:	dc 01       	movw	r26, r24
    2266:	f7 cf       	rjmp	.-18     	; 0x2256 <__stack+0x57>
    2268:	8d 91       	ld	r24, X+
    226a:	9c 91       	ld	r25, X
    226c:	11 97       	sbiw	r26, 0x01	; 1
    226e:	9d 01       	movw	r18, r26
    2270:	2e 5f       	subi	r18, 0xFE	; 254
    2272:	3f 4f       	sbci	r19, 0xFF	; 255
    2274:	82 0f       	add	r24, r18
    2276:	93 1f       	adc	r25, r19
    2278:	20 91 b8 19 	lds	r18, 0x19B8	; 0x8019b8 <__brkval>
    227c:	30 91 b9 19 	lds	r19, 0x19B9	; 0x8019b9 <__brkval+0x1>
    2280:	28 17       	cp	r18, r24
    2282:	39 07       	cpc	r19, r25
    2284:	69 f4       	brne	.+26     	; 0x22a0 <__stack+0xa1>
    2286:	30 97       	sbiw	r30, 0x00	; 0
    2288:	29 f4       	brne	.+10     	; 0x2294 <__stack+0x95>
    228a:	10 92 bb 19 	sts	0x19BB, r1	; 0x8019bb <__flp+0x1>
    228e:	10 92 ba 19 	sts	0x19BA, r1	; 0x8019ba <__flp>
    2292:	02 c0       	rjmp	.+4      	; 0x2298 <__stack+0x99>
    2294:	13 82       	std	Z+3, r1	; 0x03
    2296:	12 82       	std	Z+2, r1	; 0x02
    2298:	b0 93 b9 19 	sts	0x19B9, r27	; 0x8019b9 <__brkval+0x1>
    229c:	a0 93 b8 19 	sts	0x19B8, r26	; 0x8019b8 <__brkval>
    22a0:	df 91       	pop	r29
    22a2:	cf 91       	pop	r28
    22a4:	08 95       	ret

000022a6 <strdup>:
    22a6:	0f 93       	push	r16
    22a8:	1f 93       	push	r17
    22aa:	cf 93       	push	r28
    22ac:	df 93       	push	r29
    22ae:	8c 01       	movw	r16, r24
    22b0:	fc 01       	movw	r30, r24
    22b2:	01 90       	ld	r0, Z+
    22b4:	00 20       	and	r0, r0
    22b6:	e9 f7       	brne	.-6      	; 0x22b2 <strdup+0xc>
    22b8:	cf 01       	movw	r24, r30
    22ba:	80 1b       	sub	r24, r16
    22bc:	91 0b       	sbc	r25, r17
    22be:	d2 de       	rcall	.-604    	; 0x2064 <malloc>
    22c0:	ec 01       	movw	r28, r24
    22c2:	00 97       	sbiw	r24, 0x00	; 0
    22c4:	11 f0       	breq	.+4      	; 0x22ca <strdup+0x24>
    22c6:	b8 01       	movw	r22, r16
    22c8:	1a d0       	rcall	.+52     	; 0x22fe <strcpy>
    22ca:	ce 01       	movw	r24, r28
    22cc:	df 91       	pop	r29
    22ce:	cf 91       	pop	r28
    22d0:	1f 91       	pop	r17
    22d2:	0f 91       	pop	r16
    22d4:	08 95       	ret

000022d6 <strcat>:
    22d6:	fb 01       	movw	r30, r22
    22d8:	dc 01       	movw	r26, r24
    22da:	0d 90       	ld	r0, X+
    22dc:	00 20       	and	r0, r0
    22de:	e9 f7       	brne	.-6      	; 0x22da <strcat+0x4>
    22e0:	11 97       	sbiw	r26, 0x01	; 1
    22e2:	01 90       	ld	r0, Z+
    22e4:	0d 92       	st	X+, r0
    22e6:	00 20       	and	r0, r0
    22e8:	e1 f7       	brne	.-8      	; 0x22e2 <strcat+0xc>
    22ea:	08 95       	ret

000022ec <strcmp>:
    22ec:	fb 01       	movw	r30, r22
    22ee:	dc 01       	movw	r26, r24
    22f0:	8d 91       	ld	r24, X+
    22f2:	01 90       	ld	r0, Z+
    22f4:	80 19       	sub	r24, r0
    22f6:	01 10       	cpse	r0, r1
    22f8:	d9 f3       	breq	.-10     	; 0x22f0 <strcmp+0x4>
    22fa:	99 0b       	sbc	r25, r25
    22fc:	08 95       	ret

000022fe <strcpy>:
    22fe:	fb 01       	movw	r30, r22
    2300:	dc 01       	movw	r26, r24
    2302:	01 90       	ld	r0, Z+
    2304:	0d 92       	st	X+, r0
    2306:	00 20       	and	r0, r0
    2308:	e1 f7       	brne	.-8      	; 0x2302 <strcpy+0x4>
    230a:	08 95       	ret

0000230c <strncmp>:
    230c:	fb 01       	movw	r30, r22
    230e:	dc 01       	movw	r26, r24
    2310:	41 50       	subi	r20, 0x01	; 1
    2312:	50 40       	sbci	r21, 0x00	; 0
    2314:	30 f0       	brcs	.+12     	; 0x2322 <strncmp+0x16>
    2316:	8d 91       	ld	r24, X+
    2318:	01 90       	ld	r0, Z+
    231a:	80 19       	sub	r24, r0
    231c:	19 f4       	brne	.+6      	; 0x2324 <strncmp+0x18>
    231e:	00 20       	and	r0, r0
    2320:	b9 f7       	brne	.-18     	; 0x2310 <strncmp+0x4>
    2322:	88 1b       	sub	r24, r24
    2324:	99 0b       	sbc	r25, r25
    2326:	08 95       	ret

00002328 <strtok_r>:
    2328:	fa 01       	movw	r30, r20
    232a:	a1 91       	ld	r26, Z+
    232c:	b0 81       	ld	r27, Z
    232e:	00 97       	sbiw	r24, 0x00	; 0
    2330:	19 f4       	brne	.+6      	; 0x2338 <strtok_r+0x10>
    2332:	10 97       	sbiw	r26, 0x00	; 0
    2334:	e1 f0       	breq	.+56     	; 0x236e <strtok_r+0x46>
    2336:	cd 01       	movw	r24, r26
    2338:	dc 01       	movw	r26, r24
    233a:	cd 01       	movw	r24, r26
    233c:	0d 90       	ld	r0, X+
    233e:	00 20       	and	r0, r0
    2340:	11 f4       	brne	.+4      	; 0x2346 <strtok_r+0x1e>
    2342:	c0 01       	movw	r24, r0
    2344:	13 c0       	rjmp	.+38     	; 0x236c <strtok_r+0x44>
    2346:	fb 01       	movw	r30, r22
    2348:	21 91       	ld	r18, Z+
    234a:	22 23       	and	r18, r18
    234c:	19 f0       	breq	.+6      	; 0x2354 <strtok_r+0x2c>
    234e:	20 15       	cp	r18, r0
    2350:	d9 f7       	brne	.-10     	; 0x2348 <strtok_r+0x20>
    2352:	f3 cf       	rjmp	.-26     	; 0x233a <strtok_r+0x12>
    2354:	fb 01       	movw	r30, r22
    2356:	21 91       	ld	r18, Z+
    2358:	20 15       	cp	r18, r0
    235a:	19 f4       	brne	.+6      	; 0x2362 <strtok_r+0x3a>
    235c:	1e 92       	st	-X, r1
    235e:	11 96       	adiw	r26, 0x01	; 1
    2360:	06 c0       	rjmp	.+12     	; 0x236e <strtok_r+0x46>
    2362:	22 23       	and	r18, r18
    2364:	c1 f7       	brne	.-16     	; 0x2356 <strtok_r+0x2e>
    2366:	0d 90       	ld	r0, X+
    2368:	00 20       	and	r0, r0
    236a:	a1 f7       	brne	.-24     	; 0x2354 <strtok_r+0x2c>
    236c:	d0 01       	movw	r26, r0
    236e:	fa 01       	movw	r30, r20
    2370:	a1 93       	st	Z+, r26
    2372:	b0 83       	st	Z, r27
    2374:	08 95       	ret

00002376 <_exit>:
    2376:	f8 94       	cli

00002378 <__stop_program>:
    2378:	ff cf       	rjmp	.-2      	; 0x2378 <__stop_program>
